
Obstacle Avoiding - Robot.elf:     file format elf32-avr

Sections:
Idx Name          Size      VMA       LMA       File off  Algn
  0 .data         00000000  00800100  00800100  0000139e  2**0
                  ALLOC, LOAD, DATA
  1 .text         000000ca  00000000  00000000  000000b4  2**1
                  CONTENTS, ALLOC, LOAD, READONLY, CODE
  2 .bss          00000019  00800100  00800100  0000139e  2**0
                  ALLOC
  3 .comment      0000005b  00000000  00000000  0000139e  2**0
                  CONTENTS, READONLY
  4 .stack.descriptors.hdr 00000046  00000000  00000000  000013f9  2**0
                  CONTENTS, READONLY
  5 .debug_aranges 000000a0  00000000  00000000  00001440  2**3
                  CONTENTS, READONLY, DEBUGGING
  6 .debug_info   0000094e  00000000  00000000  000014e0  2**0
                  CONTENTS, READONLY, DEBUGGING
  7 .debug_abbrev 00000606  00000000  00000000  00001e2e  2**0
                  CONTENTS, READONLY, DEBUGGING
  8 .debug_line   000003cc  00000000  00000000  00002434  2**0
                  CONTENTS, READONLY, DEBUGGING
  9 .debug_str    00000208  00000000  00000000  00002800  2**0
                  CONTENTS, READONLY, DEBUGGING
 10 .text         00000004  000012b2  000012b2  00001366  2**1
                  CONTENTS, ALLOC, LOAD, READONLY, CODE
 11 .note.gnu.avr.deviceinfo 00000040  00000000  00000000  00002a08  2**2
                  CONTENTS, READONLY, DEBUGGING
 12 .text.startup.main 000000a8  000000ca  000000ca  0000017e  2**1
                  CONTENTS, ALLOC, LOAD, READONLY, CODE
 13 .text.manual_paly 0000006c  00000310  00000310  000003c4  2**1
                  CONTENTS, ALLOC, LOAD, READONLY, CODE
 14 .data.temp    00000001  00800119  000012b6  0000136a  2**0
                  CONTENTS, ALLOC, LOAD, DATA
 15 .data.movedata 00000001  0080011a  000012b7  0000136b  2**0
                  CONTENTS, ALLOC, LOAD, DATA
 16 .text.save_q_table 0000004c  00000ce6  00000ce6  00000d9a  2**1
                  CONTENTS, ALLOC, LOAD, READONLY, CODE
 17 .text.retrive_q_table 0000004e  00000da6  00000da6  00000e5a  2**1
                  CONTENTS, ALLOC, LOAD, READONLY, CODE
 18 .text.Obstacle_Avoider 00000080  00000aa8  00000aa8  00000b5c  2**1
                  CONTENTS, ALLOC, LOAD, READONLY, CODE
 19 .text.GET_STATE 00000074  00000d32  00000d32  00000de6  2**1
                  CONTENTS, ALLOC, LOAD, READONLY, CODE
 20 .text.Update  000001ba  00000b28  00000b28  00000bdc  2**1
                  CONTENTS, ALLOC, LOAD, READONLY, CODE
 21 .text.Train   000002ba  000003e8  000003e8  0000049c  2**1
                  CONTENTS, ALLOC, LOAD, READONLY, CODE
 22 .text.Test    0000017a  000006a2  000006a2  00000756  2**1
                  CONTENTS, ALLOC, LOAD, READONLY, CODE
 23 .bss.temp1    00000002  0080014d  0080014d  0000139e  2**0
                  ALLOC
 24 .data.REWARDS 00000020  0080011b  000012b8  0000136c  2**0
                  CONTENTS, ALLOC, LOAD, DATA
 25 .bss.Q        00000040  0080014f  0080014f  0000139e  2**0
                  ALLOC
 26 .bss.ACTION   00000002  0080018f  0080018f  0000139e  2**0
                  ALLOC
 27 .bss.STATE    00000002  00800191  00800191  0000139e  2**0
                  ALLOC
 28 .data.EPISODES 00000002  0080013b  000012d8  0000138c  2**0
                  CONTENTS, ALLOC, LOAD, DATA
 29 .data.EPSILON 00000004  0080013d  000012da  0000138e  2**0
                  CONTENTS, ALLOC, LOAD, DATA
 30 .data.GAMMA   00000004  00800141  000012de  00001392  2**0
                  CONTENTS, ALLOC, LOAD, DATA
 31 .data.ALPHA   00000004  00800145  000012e2  00001396  2**0
                  CONTENTS, ALLOC, LOAD, DATA
 32 .text.config_RC_Driver 0000002c  0000038a  0000038a  0000043e  2**1
                  CONTENTS, ALLOC, LOAD, READONLY, CODE
 33 .text.forward 00000020  00000860  00000860  00000914  2**1
                  CONTENTS, ALLOC, LOAD, READONLY, CODE
 34 .text.backward 00000020  00000880  00000880  00000934  2**1
                  CONTENTS, ALLOC, LOAD, READONLY, CODE
 35 .text.right   00000020  000008c0  000008c0  00000974  2**1
                  CONTENTS, ALLOC, LOAD, READONLY, CODE
 36 .text.left    00000020  000008e0  000008e0  00000994  2**1
                  CONTENTS, ALLOC, LOAD, READONLY, CODE
 37 .text.stop    00000020  000008a0  000008a0  00000954  2**1
                  CONTENTS, ALLOC, LOAD, READONLY, CODE
 38 .text.config_servo_timer 00000056  00000900  00000900  000009b4  2**1
                  CONTENTS, ALLOC, LOAD, READONLY, CODE
 39 .text.set_servo_angel 00000032  000003b6  000003b6  0000046a  2**1
                  CONTENTS, ALLOC, LOAD, READONLY, CODE
 40 .text.UART_init 00000062  000002ae  000002ae  00000362  2**1
                  CONTENTS, ALLOC, LOAD, READONLY, CODE
 41 .text.UART_TxChar 0000000e  00000f9c  00000f9c  00001050  2**1
                  CONTENTS, ALLOC, LOAD, READONLY, CODE
 42 .text.UART_RxChar 0000000e  0000037c  0000037c  00000430  2**1
                  CONTENTS, ALLOC, LOAD, READONLY, CODE
 43 .text.DIO_SetPinDirection 0000009e  00000172  00000172  00000226  2**1
                  CONTENTS, ALLOC, LOAD, READONLY, CODE
 44 .text.DIO_SetPinValue 0000009e  00000210  00000210  000002c4  2**1
                  CONTENTS, ALLOC, LOAD, READONLY, CODE
 45 .text.ultarasonic_distance 0000006e  00000faa  00000faa  0000105e  2**1
                  CONTENTS, ALLOC, LOAD, READONLY, CODE
 46 .text.avrlibc.fplib 0000000a  00001018  00001018  000010cc  2**1
                  CONTENTS, ALLOC, LOAD, READONLY, CODE
 47 .text.avrlibc.fplib 000000c2  000011aa  000011aa  0000125e  2**1
                  CONTENTS, ALLOC, LOAD, READONLY, CODE
 48 .text.avrlibc.fplib 00000004  00000aa4  00000aa4  00000b58  2**1
                  CONTENTS, ALLOC, LOAD, READONLY, CODE
 49 .text.avrlibc.fplib 000000ce  00000ece  00000ece  00000f82  2**1
                  CONTENTS, ALLOC, LOAD, READONLY, CODE
 50 .text.avrlibc.fplib 0000007a  00000a2a  00000a2a  00000ade  2**1
                  CONTENTS, ALLOC, LOAD, READONLY, CODE
 51 .text.avrlibc.fplib 0000000c  0000112a  0000112a  000011de  2**1
                  CONTENTS, ALLOC, LOAD, READONLY, CODE
 52 .text.avrlibc.fplib 00000006  00001152  00001152  00001206  2**1
                  CONTENTS, ALLOC, LOAD, READONLY, CODE
 53 .text.avrlibc.fplib 0000000e  00001144  00001144  000011f8  2**1
                  CONTENTS, ALLOC, LOAD, READONLY, CODE
 54 .text.avrlibc.fplib 0000000e  0000119c  0000119c  00001250  2**1
                  CONTENTS, ALLOC, LOAD, READONLY, CODE
 55 .text.avrlibc.fplib 00000022  00000eac  00000eac  00000f60  2**1
                  CONTENTS, ALLOC, LOAD, READONLY, CODE
 56 .text.avrlibc.fplib 00000044  00001158  00001158  0000120c  2**1
                  CONTENTS, ALLOC, LOAD, READONLY, CODE
 57 .text.avrlibc.fplib 0000000e  00001136  00001136  000011ea  2**1
                  CONTENTS, ALLOC, LOAD, READONLY, CODE
 58 .text.avrlibc.fplib 00000008  000009fc  000009fc  00000ab0  2**1
                  CONTENTS, ALLOC, LOAD, READONLY, CODE
 59 .text.avrlibc.fplib 00000004  00000ce2  00000ce2  00000d96  2**1
                  CONTENTS, ALLOC, LOAD, READONLY, CODE
 60 .text.avrlibc.fplib 000000c4  00001022  00001022  000010d6  2**1
                  CONTENTS, ALLOC, LOAD, READONLY, CODE
 61 .text.avrlibc.fplib 00000048  00000e3c  00000e3c  00000ef0  2**1
                  CONTENTS, ALLOC, LOAD, READONLY, CODE
 62 .text.libgcc.div 00000026  00000a04  00000a04  00000ab8  2**1
                  CONTENTS, ALLOC, LOAD, READONLY, CODE
 63 .text.libgcc.div 00000044  0000081c  0000081c  000008d0  2**1
                  CONTENTS, ALLOC, LOAD, READONLY, CODE
 64 .text.libgcc.mul 0000001e  000010fc  000010fc  000011b0  2**1
                  CONTENTS, ALLOC, LOAD, READONLY, CODE
 65 .text.libgcc.div 00000028  00000e84  00000e84  00000f38  2**1
                  CONTENTS, ALLOC, LOAD, READONLY, CODE
 66 .data         00000004  00800149  000012e6  0000139a  2**0
                  CONTENTS, ALLOC, LOAD, DATA
 67 .text.avrlibc 000000a6  00000956  00000956  00000a0a  2**1
                  CONTENTS, ALLOC, LOAD, READONLY, CODE
 68 .text.avrlibc 0000000c  000010f0  000010f0  000011a4  2**1
                  CONTENTS, ALLOC, LOAD, READONLY, CODE
 69 .text.avrlibc 0000000a  000010e6  000010e6  0000119a  2**1
                  CONTENTS, ALLOC, LOAD, READONLY, CODE
 70 .text.avrlibc 00000006  00001288  00001288  0000133c  2**1
                  CONTENTS, ALLOC, LOAD, READONLY, CODE
 71 .text.avrlibc 00000024  0000128e  0000128e  00001342  2**1
                  CONTENTS, ALLOC, LOAD, READONLY, CODE
 72 .text.avrlibc 0000001c  0000126c  0000126c  00001320  2**1
                  CONTENTS, ALLOC, LOAD, READONLY, CODE
 73 .text.libgcc.div 00000028  00000e14  00000e14  00000ec8  2**1
                  CONTENTS, ALLOC, LOAD, READONLY, CODE
 74 .text.libgcc.div 00000010  0000111a  0000111a  000011ce  2**1
                  CONTENTS, ALLOC, LOAD, READONLY, CODE
 75 .text.libgcc.mul 00000014  00000df4  00000df4  00000ea8  2**1
                  CONTENTS, ALLOC, LOAD, READONLY, CODE
 76 .text.libgcc.mul 0000000c  00000e08  00000e08  00000ebc  2**1
                  CONTENTS, ALLOC, LOAD, READONLY, CODE

Disassembly of section .text:

00000000 <__vectors>:
   0:	3c c0       	rjmp	.+120    	; 0x7a <__ctors_end>
   2:	00 00       	nop
   4:	0c 94 59 09 	jmp	0x12b2	; 0x12b2 <__bad_interrupt>
   8:	0c 94 59 09 	jmp	0x12b2	; 0x12b2 <__bad_interrupt>
   c:	0c 94 59 09 	jmp	0x12b2	; 0x12b2 <__bad_interrupt>
  10:	0c 94 59 09 	jmp	0x12b2	; 0x12b2 <__bad_interrupt>
  14:	0c 94 59 09 	jmp	0x12b2	; 0x12b2 <__bad_interrupt>
  18:	0c 94 59 09 	jmp	0x12b2	; 0x12b2 <__bad_interrupt>
  1c:	0c 94 59 09 	jmp	0x12b2	; 0x12b2 <__bad_interrupt>
  20:	0c 94 59 09 	jmp	0x12b2	; 0x12b2 <__bad_interrupt>
  24:	0c 94 59 09 	jmp	0x12b2	; 0x12b2 <__bad_interrupt>
  28:	0c 94 59 09 	jmp	0x12b2	; 0x12b2 <__bad_interrupt>
  2c:	0c 94 59 09 	jmp	0x12b2	; 0x12b2 <__bad_interrupt>
  30:	0c 94 59 09 	jmp	0x12b2	; 0x12b2 <__bad_interrupt>
  34:	0c 94 59 09 	jmp	0x12b2	; 0x12b2 <__bad_interrupt>
  38:	0c 94 59 09 	jmp	0x12b2	; 0x12b2 <__bad_interrupt>
  3c:	0c 94 59 09 	jmp	0x12b2	; 0x12b2 <__bad_interrupt>
  40:	0c 94 59 09 	jmp	0x12b2	; 0x12b2 <__bad_interrupt>
  44:	0c 94 59 09 	jmp	0x12b2	; 0x12b2 <__bad_interrupt>
  48:	0c 94 59 09 	jmp	0x12b2	; 0x12b2 <__bad_interrupt>
  4c:	0c 94 59 09 	jmp	0x12b2	; 0x12b2 <__bad_interrupt>
  50:	0c 94 59 09 	jmp	0x12b2	; 0x12b2 <__bad_interrupt>
  54:	0c 94 59 09 	jmp	0x12b2	; 0x12b2 <__bad_interrupt>
  58:	0c 94 59 09 	jmp	0x12b2	; 0x12b2 <__bad_interrupt>
  5c:	0c 94 59 09 	jmp	0x12b2	; 0x12b2 <__bad_interrupt>
  60:	0c 94 59 09 	jmp	0x12b2	; 0x12b2 <__bad_interrupt>
  64:	0c 94 59 09 	jmp	0x12b2	; 0x12b2 <__bad_interrupt>

00000068 <.dinit>:
  68:	01 00       	.word	0x0001	; ????
  6a:	01 19       	sub	r16, r1
  6c:	80 01       	movw	r16, r0
  6e:	19 01       	movw	r2, r18
  70:	4d 00       	.word	0x004d	; ????
  72:	12 b6       	in	r1, 0x32	; 50
  74:	01 4d       	sbci	r16, 0xD1	; 209
  76:	01 93       	st	Z+, r16
  78:	80 00       	.word	0x0080	; ????

0000007a <__ctors_end>:
  7a:	11 24       	eor	r1, r1
  7c:	1f be       	out	0x3f, r1	; 63
  7e:	cf ef       	ldi	r28, 0xFF	; 255
  80:	d8 e0       	ldi	r29, 0x08	; 8
  82:	de bf       	out	0x3e, r29	; 62
  84:	cd bf       	out	0x3d, r28	; 61

00000086 <__do_copy_data>:
  86:	e8 e6       	ldi	r30, 0x68	; 104
  88:	f0 e0       	ldi	r31, 0x00	; 0
  8a:	40 e0       	ldi	r20, 0x00	; 0
  8c:	17 c0       	rjmp	.+46     	; 0xbc <__do_clear_bss+0x8>
  8e:	b5 91       	lpm	r27, Z+
  90:	a5 91       	lpm	r26, Z+
  92:	35 91       	lpm	r19, Z+
  94:	25 91       	lpm	r18, Z+
  96:	05 91       	lpm	r16, Z+
  98:	07 fd       	sbrc	r16, 7
  9a:	0c c0       	rjmp	.+24     	; 0xb4 <__do_clear_bss>
  9c:	95 91       	lpm	r25, Z+
  9e:	85 91       	lpm	r24, Z+
  a0:	ef 01       	movw	r28, r30
  a2:	f9 2f       	mov	r31, r25
  a4:	e8 2f       	mov	r30, r24
  a6:	05 90       	lpm	r0, Z+
  a8:	0d 92       	st	X+, r0
  aa:	a2 17       	cp	r26, r18
  ac:	b3 07       	cpc	r27, r19
  ae:	d9 f7       	brne	.-10     	; 0xa6 <__do_copy_data+0x20>
  b0:	fe 01       	movw	r30, r28
  b2:	04 c0       	rjmp	.+8      	; 0xbc <__do_clear_bss+0x8>

000000b4 <__do_clear_bss>:
  b4:	1d 92       	st	X+, r1
  b6:	a2 17       	cp	r26, r18
  b8:	b3 07       	cpc	r27, r19
  ba:	e1 f7       	brne	.-8      	; 0xb4 <__do_clear_bss>
  bc:	e9 37       	cpi	r30, 0x79	; 121
  be:	f4 07       	cpc	r31, r20
  c0:	31 f7       	brne	.-52     	; 0x8e <__do_copy_data+0x8>
  c2:	03 d0       	rcall	.+6      	; 0xca <_etext>
  c4:	00 c0       	rjmp	.+0      	; 0xc6 <_exit>

000000c6 <_exit>:
  c6:	f8 94       	cli

000000c8 <__stop_program>:
  c8:	ff cf       	rjmp	.-2      	; 0xc8 <__stop_program>

Disassembly of section .text:

000012b2 <__bad_interrupt>:
    12b2:	0c 94 00 00 	jmp	0	; 0x0 <__TEXT_REGION_ORIGIN__>

Disassembly of section .text.startup.main:

000000ca <main>:
  ca:	10 92 01 01 	sts	0x0101, r1	; 0x800101 <__DATA_REGION_ORIGIN__+0x1>
  ce:	10 92 00 01 	sts	0x0100, r1	; 0x800100 <__DATA_REGION_ORIGIN__>
  d2:	41 e0       	ldi	r20, 0x01	; 1
  d4:	65 e0       	ldi	r22, 0x05	; 5
  d6:	81 e0       	ldi	r24, 0x01	; 1
  d8:	4c d0       	rcall	.+152    	; 0x172 <DIO_SetPinDirection>
  da:	41 e0       	ldi	r20, 0x01	; 1
  dc:	62 e0       	ldi	r22, 0x02	; 2
  de:	83 e0       	ldi	r24, 0x03	; 3
  e0:	48 d0       	rcall	.+144    	; 0x172 <DIO_SetPinDirection>
  e2:	41 e0       	ldi	r20, 0x01	; 1
  e4:	63 e0       	ldi	r22, 0x03	; 3
  e6:	83 e0       	ldi	r24, 0x03	; 3
  e8:	44 d0       	rcall	.+136    	; 0x172 <DIO_SetPinDirection>
  ea:	41 e0       	ldi	r20, 0x01	; 1
  ec:	64 e0       	ldi	r22, 0x04	; 4
  ee:	83 e0       	ldi	r24, 0x03	; 3
  f0:	40 d0       	rcall	.+128    	; 0x172 <DIO_SetPinDirection>
  f2:	41 e0       	ldi	r20, 0x01	; 1
  f4:	65 e0       	ldi	r22, 0x05	; 5
  f6:	83 e0       	ldi	r24, 0x03	; 3
  f8:	3c d0       	rcall	.+120    	; 0x172 <DIO_SetPinDirection>
  fa:	41 e0       	ldi	r20, 0x01	; 1
  fc:	67 e0       	ldi	r22, 0x07	; 7
  fe:	83 e0       	ldi	r24, 0x03	; 3
 100:	38 d0       	rcall	.+112    	; 0x172 <DIO_SetPinDirection>
 102:	80 e0       	ldi	r24, 0x00	; 0
 104:	58 d1       	rcall	.+688    	; 0x3b6 <set_servo_angel>
 106:	2f e3       	ldi	r18, 0x3F	; 63
 108:	8d e0       	ldi	r24, 0x0D	; 13
 10a:	93 e0       	ldi	r25, 0x03	; 3
 10c:	21 50       	subi	r18, 0x01	; 1
 10e:	80 40       	sbci	r24, 0x00	; 0
 110:	90 40       	sbci	r25, 0x00	; 0
 112:	e1 f7       	brne	.-8      	; 0x10c <main+0x42>
 114:	00 c0       	rjmp	.+0      	; 0x116 <main+0x4c>
 116:	00 00       	nop
 118:	38 d1       	rcall	.+624    	; 0x38a <config_RC_Driver>
 11a:	60 e8       	ldi	r22, 0x80	; 128
 11c:	75 e2       	ldi	r23, 0x25	; 37
 11e:	80 e0       	ldi	r24, 0x00	; 0
 120:	90 e0       	ldi	r25, 0x00	; 0
 122:	c5 d0       	rcall	.+394    	; 0x2ae <UART_init>
 124:	c1 e0       	ldi	r28, 0x01	; 1
 126:	d0 e0       	ldi	r29, 0x00	; 0
 128:	80 91 00 01 	lds	r24, 0x0100	; 0x800100 <__DATA_REGION_ORIGIN__>
 12c:	90 91 01 01 	lds	r25, 0x0101	; 0x800101 <__DATA_REGION_ORIGIN__+0x1>
 130:	89 2b       	or	r24, r25
 132:	69 f0       	breq	.+26     	; 0x14e <main+0x84>
 134:	80 91 c6 00 	lds	r24, 0x00C6	; 0x8000c6 <__TEXT_REGION_LENGTH__+0x7f80c6>
 138:	81 33       	cpi	r24, 0x31	; 49
 13a:	81 f0       	breq	.+32     	; 0x15c <main+0x92>
 13c:	82 33       	cpi	r24, 0x32	; 50
 13e:	a1 f7       	brne	.-24     	; 0x128 <main+0x5e>
 140:	e7 d0       	rcall	.+462    	; 0x310 <manual_paly>
 142:	80 91 00 01 	lds	r24, 0x0100	; 0x800100 <__DATA_REGION_ORIGIN__>
 146:	90 91 01 01 	lds	r25, 0x0101	; 0x800101 <__DATA_REGION_ORIGIN__+0x1>
 14a:	89 2b       	or	r24, r25
 14c:	99 f7       	brne	.-26     	; 0x134 <main+0x6a>
 14e:	16 d1       	rcall	.+556    	; 0x37c <UART_RxChar>
 150:	d0 93 01 01 	sts	0x0101, r29	; 0x800101 <__DATA_REGION_ORIGIN__+0x1>
 154:	c0 93 00 01 	sts	0x0100, r28	; 0x800100 <__DATA_REGION_ORIGIN__>
 158:	81 33       	cpi	r24, 0x31	; 49
 15a:	81 f7       	brne	.-32     	; 0x13c <main+0x72>
 15c:	40 e0       	ldi	r20, 0x00	; 0
 15e:	65 e0       	ldi	r22, 0x05	; 5
 160:	81 e0       	ldi	r24, 0x01	; 1
 162:	56 d0       	rcall	.+172    	; 0x210 <DIO_SetPinValue>
 164:	41 d1       	rcall	.+642    	; 0x3e8 <Train>
 166:	41 e0       	ldi	r20, 0x01	; 1
 168:	65 e0       	ldi	r22, 0x05	; 5
 16a:	81 e0       	ldi	r24, 0x01	; 1
 16c:	51 d0       	rcall	.+162    	; 0x210 <DIO_SetPinValue>
 16e:	99 d2       	rcall	.+1330   	; 0x6a2 <Test>
 170:	db cf       	rjmp	.-74     	; 0x128 <main+0x5e>

Disassembly of section .text.manual_paly:

00000310 <manual_paly>:
 310:	cf 93       	push	r28
 312:	80 e0       	ldi	r24, 0x00	; 0
 314:	50 d0       	rcall	.+160    	; 0x3b6 <set_servo_angel>
 316:	80 91 c6 00 	lds	r24, 0x00C6	; 0x8000c6 <__TEXT_REGION_LENGTH__+0x7f80c6>
 31a:	81 33       	cpi	r24, 0x31	; 49
 31c:	d9 f0       	breq	.+54     	; 0x354 <manual_paly+0x44>
 31e:	80 91 c6 00 	lds	r24, 0x00C6	; 0x8000c6 <__TEXT_REGION_LENGTH__+0x7f80c6>
 322:	80 93 1a 01 	sts	0x011A, r24	; 0x80011a <movedata>
 326:	90 91 19 01 	lds	r25, 0x0119	; 0x800119 <_end>
 32a:	89 17       	cp	r24, r25
 32c:	a1 f3       	breq	.-24     	; 0x316 <manual_paly+0x6>
 32e:	81 33       	cpi	r24, 0x31	; 49
 330:	91 f3       	breq	.-28     	; 0x316 <manual_paly+0x6>
 332:	96 d2       	rcall	.+1324   	; 0x860 <forward>
 334:	c0 91 1a 01 	lds	r28, 0x011A	; 0x80011a <movedata>
 338:	c5 33       	cpi	r28, 0x35	; 53
 33a:	b1 f0       	breq	.+44     	; 0x368 <manual_paly+0x58>
 33c:	68 f4       	brcc	.+26     	; 0x358 <manual_paly+0x48>
 33e:	c3 33       	cpi	r28, 0x33	; 51
 340:	89 f0       	breq	.+34     	; 0x364 <manual_paly+0x54>
 342:	c4 33       	cpi	r28, 0x34	; 52
 344:	41 f7       	brne	.-48     	; 0x316 <manual_paly+0x6>
 346:	9c d2       	rcall	.+1336   	; 0x880 <backward>
 348:	c0 93 19 01 	sts	0x0119, r28	; 0x800119 <_end>
 34c:	80 91 c6 00 	lds	r24, 0x00C6	; 0x8000c6 <__TEXT_REGION_LENGTH__+0x7f80c6>
 350:	81 33       	cpi	r24, 0x31	; 49
 352:	29 f7       	brne	.-54     	; 0x31e <manual_paly+0xe>
 354:	cf 91       	pop	r28
 356:	08 95       	ret
 358:	c6 33       	cpi	r28, 0x36	; 54
 35a:	71 f0       	breq	.+28     	; 0x378 <manual_paly+0x68>
 35c:	c7 33       	cpi	r28, 0x37	; 55
 35e:	d9 f6       	brne	.-74     	; 0x316 <manual_paly+0x6>
 360:	9f d2       	rcall	.+1342   	; 0x8a0 <stop>
 362:	f2 cf       	rjmp	.-28     	; 0x348 <manual_paly+0x38>
 364:	7d d2       	rcall	.+1274   	; 0x860 <forward>
 366:	f0 cf       	rjmp	.-32     	; 0x348 <manual_paly+0x38>
 368:	ab d2       	rcall	.+1366   	; 0x8c0 <right>
 36a:	87 ea       	ldi	r24, 0xA7	; 167
 36c:	91 e6       	ldi	r25, 0x61	; 97
 36e:	01 97       	sbiw	r24, 0x01	; 1
 370:	f1 f7       	brne	.-4      	; 0x36e <manual_paly+0x5e>
 372:	00 c0       	rjmp	.+0      	; 0x374 <manual_paly+0x64>
 374:	00 00       	nop
 376:	f4 cf       	rjmp	.-24     	; 0x360 <manual_paly+0x50>
 378:	b3 d2       	rcall	.+1382   	; 0x8e0 <left>
 37a:	f7 cf       	rjmp	.-18     	; 0x36a <manual_paly+0x5a>

Disassembly of section .text.save_q_table:

00000ce6 <save_q_table>:
 ce6:	ef 92       	push	r14
 ce8:	ff 92       	push	r15
 cea:	0f 93       	push	r16
 cec:	1f 93       	push	r17
 cee:	cf 93       	push	r28
 cf0:	df 93       	push	r29
 cf2:	c0 e0       	ldi	r28, 0x00	; 0
 cf4:	d0 e0       	ldi	r29, 0x00	; 0
 cf6:	8e 01       	movw	r16, r28
 cf8:	01 5b       	subi	r16, 0xB1	; 177
 cfa:	1e 4f       	sbci	r17, 0xFE	; 254
 cfc:	7e 01       	movw	r14, r28
 cfe:	f0 e1       	ldi	r31, 0x10	; 16
 d00:	ef 0e       	add	r14, r31
 d02:	f1 1c       	adc	r15, r1
 d04:	f8 01       	movw	r30, r16
 d06:	41 91       	ld	r20, Z+
 d08:	51 91       	ld	r21, Z+
 d0a:	61 91       	ld	r22, Z+
 d0c:	71 91       	ld	r23, Z+
 d0e:	8f 01       	movw	r16, r30
 d10:	ce 01       	movw	r24, r28
 d12:	e9 d1       	rcall	.+978    	; 0x10e6 <eeprom_write_dword>
 d14:	24 96       	adiw	r28, 0x04	; 4
 d16:	ec 16       	cp	r14, r28
 d18:	fd 06       	cpc	r15, r29
 d1a:	a1 f7       	brne	.-24     	; 0xd04 <save_q_table+0x1e>
 d1c:	e7 01       	movw	r28, r14
 d1e:	c0 34       	cpi	r28, 0x40	; 64
 d20:	d1 05       	cpc	r29, r1
 d22:	49 f7       	brne	.-46     	; 0xcf6 <save_q_table+0x10>
 d24:	df 91       	pop	r29
 d26:	cf 91       	pop	r28
 d28:	1f 91       	pop	r17
 d2a:	0f 91       	pop	r16
 d2c:	ff 90       	pop	r15
 d2e:	ef 90       	pop	r14
 d30:	08 95       	ret

Disassembly of section .text.retrive_q_table:

00000da6 <retrive_q_table>:
 da6:	ef 92       	push	r14
 da8:	ff 92       	push	r15
 daa:	0f 93       	push	r16
 dac:	1f 93       	push	r17
 dae:	cf 93       	push	r28
 db0:	df 93       	push	r29
 db2:	c0 e0       	ldi	r28, 0x00	; 0
 db4:	d0 e0       	ldi	r29, 0x00	; 0
 db6:	8e 01       	movw	r16, r28
 db8:	01 5b       	subi	r16, 0xB1	; 177
 dba:	1e 4f       	sbci	r17, 0xFE	; 254
 dbc:	7e 01       	movw	r14, r28
 dbe:	f0 e1       	ldi	r31, 0x10	; 16
 dc0:	ef 0e       	add	r14, r31
 dc2:	f1 1c       	adc	r15, r1
 dc4:	be 01       	movw	r22, r28
 dc6:	80 e8       	ldi	r24, 0x80	; 128
 dc8:	93 d1       	rcall	.+806    	; 0x10f0 <eeprom_read_dword>
 dca:	f8 01       	movw	r30, r16
 dcc:	61 93       	st	Z+, r22
 dce:	71 93       	st	Z+, r23
 dd0:	81 93       	st	Z+, r24
 dd2:	91 93       	st	Z+, r25
 dd4:	8f 01       	movw	r16, r30
 dd6:	24 96       	adiw	r28, 0x04	; 4
 dd8:	ec 16       	cp	r14, r28
 dda:	fd 06       	cpc	r15, r29
 ddc:	99 f7       	brne	.-26     	; 0xdc4 <retrive_q_table+0x1e>
 dde:	e7 01       	movw	r28, r14
 de0:	c0 34       	cpi	r28, 0x40	; 64
 de2:	d1 05       	cpc	r29, r1
 de4:	41 f7       	brne	.-48     	; 0xdb6 <retrive_q_table+0x10>
 de6:	df 91       	pop	r29
 de8:	cf 91       	pop	r28
 dea:	1f 91       	pop	r17
 dec:	0f 91       	pop	r16
 dee:	ff 90       	pop	r15
 df0:	ef 90       	pop	r14
 df2:	08 95       	ret

Disassembly of section .text.Obstacle_Avoider:

00000aa8 <Obstacle_Avoider>:
 aa8:	cf 93       	push	r28
 aaa:	df 93       	push	r29
 aac:	7e d2       	rcall	.+1276   	; 0xfaa <ultarasonic_distance>
 aae:	90 93 06 01 	sts	0x0106, r25	; 0x800106 <distance+0x1>
 ab2:	80 93 05 01 	sts	0x0105, r24	; 0x800105 <distance>
 ab6:	90 93 4e 01 	sts	0x014E, r25	; 0x80014e <temp1+0x1>
 aba:	80 93 4d 01 	sts	0x014D, r24	; 0x80014d <temp1>
 abe:	88 32       	cpi	r24, 0x28	; 40
 ac0:	91 05       	cpc	r25, r1
 ac2:	74 f1       	brlt	.+92     	; 0xb20 <Obstacle_Avoider+0x78>
 ac4:	10 92 02 01 	sts	0x0102, r1	; 0x800102 <Obstacle>
 ac8:	c4 e6       	ldi	r28, 0x64	; 100
 aca:	d0 e0       	ldi	r29, 0x00	; 0
 acc:	be 01       	movw	r22, r28
 ace:	9a df       	rcall	.-204    	; 0xa04 <__divmodhi4>
 ad0:	86 2f       	mov	r24, r22
 ad2:	64 d2       	rcall	.+1224   	; 0xf9c <UART_TxChar>
 ad4:	80 91 4d 01 	lds	r24, 0x014D	; 0x80014d <temp1>
 ad8:	90 91 4e 01 	lds	r25, 0x014E	; 0x80014e <temp1+0x1>
 adc:	be 01       	movw	r22, r28
 ade:	92 df       	rcall	.-220    	; 0xa04 <__divmodhi4>
 ae0:	90 93 4e 01 	sts	0x014E, r25	; 0x80014e <temp1+0x1>
 ae4:	80 93 4d 01 	sts	0x014D, r24	; 0x80014d <temp1>
 ae8:	ca e0       	ldi	r28, 0x0A	; 10
 aea:	d0 e0       	ldi	r29, 0x00	; 0
 aec:	be 01       	movw	r22, r28
 aee:	8a df       	rcall	.-236    	; 0xa04 <__divmodhi4>
 af0:	86 2f       	mov	r24, r22
 af2:	54 d2       	rcall	.+1192   	; 0xf9c <UART_TxChar>
 af4:	80 91 4d 01 	lds	r24, 0x014D	; 0x80014d <temp1>
 af8:	90 91 4e 01 	lds	r25, 0x014E	; 0x80014e <temp1+0x1>
 afc:	be 01       	movw	r22, r28
 afe:	82 df       	rcall	.-252    	; 0xa04 <__divmodhi4>
 b00:	80 93 4d 01 	sts	0x014D, r24	; 0x80014d <temp1>
 b04:	90 93 4e 01 	sts	0x014E, r25	; 0x80014e <temp1+0x1>
 b08:	49 d2       	rcall	.+1170   	; 0xf9c <UART_TxChar>
 b0a:	83 ec       	ldi	r24, 0xC3	; 195
 b0c:	99 e0       	ldi	r25, 0x09	; 9
 b0e:	01 97       	sbiw	r24, 0x01	; 1
 b10:	f1 f7       	brne	.-4      	; 0xb0e <Obstacle_Avoider+0x66>
 b12:	00 c0       	rjmp	.+0      	; 0xb14 <Obstacle_Avoider+0x6c>
 b14:	00 00       	nop
 b16:	80 91 02 01 	lds	r24, 0x0102	; 0x800102 <Obstacle>
 b1a:	df 91       	pop	r29
 b1c:	cf 91       	pop	r28
 b1e:	08 95       	ret
 b20:	21 e0       	ldi	r18, 0x01	; 1
 b22:	20 93 02 01 	sts	0x0102, r18	; 0x800102 <Obstacle>
 b26:	d0 cf       	rjmp	.-96     	; 0xac8 <Obstacle_Avoider+0x20>

Disassembly of section .text.GET_STATE:

00000d32 <GET_STATE>:
 d32:	cf 93       	push	r28
 d34:	df 93       	push	r29
 d36:	8a e5       	ldi	r24, 0x5A	; 90
 d38:	3e db       	rcall	.-2436   	; 0x3b6 <set_servo_angel>
 d3a:	2f e3       	ldi	r18, 0x3F	; 63
 d3c:	82 e4       	ldi	r24, 0x42	; 66
 d3e:	9f e0       	ldi	r25, 0x0F	; 15
 d40:	21 50       	subi	r18, 0x01	; 1
 d42:	80 40       	sbci	r24, 0x00	; 0
 d44:	90 40       	sbci	r25, 0x00	; 0
 d46:	e1 f7       	brne	.-8      	; 0xd40 <GET_STATE+0xe>
 d48:	00 c0       	rjmp	.+0      	; 0xd4a <GET_STATE+0x18>
 d4a:	00 00       	nop
 d4c:	ad de       	rcall	.-678    	; 0xaa8 <Obstacle_Avoider>
 d4e:	d8 2f       	mov	r29, r24
 d50:	86 ea       	ldi	r24, 0xA6	; 166
 d52:	31 db       	rcall	.-2462   	; 0x3b6 <set_servo_angel>
 d54:	2f e3       	ldi	r18, 0x3F	; 63
 d56:	82 e4       	ldi	r24, 0x42	; 66
 d58:	9f e0       	ldi	r25, 0x0F	; 15
 d5a:	21 50       	subi	r18, 0x01	; 1
 d5c:	80 40       	sbci	r24, 0x00	; 0
 d5e:	90 40       	sbci	r25, 0x00	; 0
 d60:	e1 f7       	brne	.-8      	; 0xd5a <GET_STATE+0x28>
 d62:	00 c0       	rjmp	.+0      	; 0xd64 <GET_STATE+0x32>
 d64:	00 00       	nop
 d66:	a0 de       	rcall	.-704    	; 0xaa8 <Obstacle_Avoider>
 d68:	c8 2f       	mov	r28, r24
 d6a:	80 e0       	ldi	r24, 0x00	; 0
 d6c:	24 db       	rcall	.-2488   	; 0x3b6 <set_servo_angel>
 d6e:	2f e3       	ldi	r18, 0x3F	; 63
 d70:	82 e4       	ldi	r24, 0x42	; 66
 d72:	9f e0       	ldi	r25, 0x0F	; 15
 d74:	21 50       	subi	r18, 0x01	; 1
 d76:	80 40       	sbci	r24, 0x00	; 0
 d78:	90 40       	sbci	r25, 0x00	; 0
 d7a:	e1 f7       	brne	.-8      	; 0xd74 <GET_STATE+0x42>
 d7c:	00 c0       	rjmp	.+0      	; 0xd7e <GET_STATE+0x4c>
 d7e:	00 00       	nop
 d80:	d1 11       	cpse	r29, r1
 d82:	05 c0       	rjmp	.+10     	; 0xd8e <GET_STATE+0x5c>
 d84:	8c 2f       	mov	r24, r28
 d86:	90 e0       	ldi	r25, 0x00	; 0
 d88:	df 91       	pop	r29
 d8a:	cf 91       	pop	r28
 d8c:	08 95       	ret
 d8e:	cc 23       	and	r28, r28
 d90:	29 f0       	breq	.+10     	; 0xd9c <GET_STATE+0x6a>
 d92:	83 e0       	ldi	r24, 0x03	; 3
 d94:	90 e0       	ldi	r25, 0x00	; 0
 d96:	df 91       	pop	r29
 d98:	cf 91       	pop	r28
 d9a:	08 95       	ret
 d9c:	82 e0       	ldi	r24, 0x02	; 2
 d9e:	90 e0       	ldi	r25, 0x00	; 0
 da0:	df 91       	pop	r29
 da2:	cf 91       	pop	r28
 da4:	08 95       	ret

Disassembly of section .text.Update:

00000b28 <Update>:
 b28:	2f 92       	push	r2
 b2a:	3f 92       	push	r3
 b2c:	4f 92       	push	r4
 b2e:	5f 92       	push	r5
 b30:	6f 92       	push	r6
 b32:	7f 92       	push	r7
 b34:	8f 92       	push	r8
 b36:	9f 92       	push	r9
 b38:	af 92       	push	r10
 b3a:	bf 92       	push	r11
 b3c:	cf 92       	push	r12
 b3e:	df 92       	push	r13
 b40:	ef 92       	push	r14
 b42:	ff 92       	push	r15
 b44:	0f 93       	push	r16
 b46:	1f 93       	push	r17
 b48:	cf 93       	push	r28
 b4a:	df 93       	push	r29
 b4c:	cd b7       	in	r28, 0x3d	; 61
 b4e:	de b7       	in	r29, 0x3e	; 62
 b50:	6c 97       	sbiw	r28, 0x1c	; 28
 b52:	0f b6       	in	r0, 0x3f	; 63
 b54:	f8 94       	cli
 b56:	de bf       	out	0x3e, r29	; 62
 b58:	0f be       	out	0x3f, r0	; 63
 b5a:	cd bf       	out	0x3d, r28	; 61
 b5c:	1c 8f       	std	Y+28, r17	; 0x1c
 b5e:	0b 8f       	std	Y+27, r16	; 0x1b
 b60:	62 95       	swap	r22
 b62:	72 95       	swap	r23
 b64:	70 7f       	andi	r23, 0xF0	; 240
 b66:	76 27       	eor	r23, r22
 b68:	60 7f       	andi	r22, 0xF0	; 240
 b6a:	76 27       	eor	r23, r22
 b6c:	22 0f       	add	r18, r18
 b6e:	33 1f       	adc	r19, r19
 b70:	22 0f       	add	r18, r18
 b72:	33 1f       	adc	r19, r19
 b74:	62 0f       	add	r22, r18
 b76:	73 1f       	adc	r23, r19
 b78:	86 0f       	add	r24, r22
 b7a:	97 1f       	adc	r25, r23
 b7c:	9a 8f       	std	Y+26, r25	; 0x1a
 b7e:	89 8f       	std	Y+25, r24	; 0x19
 b80:	dc 01       	movw	r26, r24
 b82:	8d 91       	ld	r24, X+
 b84:	9d 91       	ld	r25, X+
 b86:	0d 90       	ld	r0, X+
 b88:	bc 91       	ld	r27, X
 b8a:	a0 2d       	mov	r26, r0
 b8c:	8d 8b       	std	Y+21, r24	; 0x15
 b8e:	9e 8b       	std	Y+22, r25	; 0x16
 b90:	af 8b       	std	Y+23, r26	; 0x17
 b92:	b8 8f       	std	Y+24, r27	; 0x18
 b94:	80 93 11 01 	sts	0x0111, r24	; 0x800111 <Q_OLD>
 b98:	90 93 12 01 	sts	0x0112, r25	; 0x800112 <Q_OLD+0x1>
 b9c:	a0 93 13 01 	sts	0x0113, r26	; 0x800113 <Q_OLD+0x2>
 ba0:	b0 93 14 01 	sts	0x0114, r27	; 0x800114 <Q_OLD+0x3>
 ba4:	da 01       	movw	r26, r20
 ba6:	a2 95       	swap	r26
 ba8:	b2 95       	swap	r27
 baa:	b0 7f       	andi	r27, 0xF0	; 240
 bac:	ba 27       	eor	r27, r26
 bae:	a0 7f       	andi	r26, 0xF0	; 240
 bb0:	ba 27       	eor	r27, r26
 bb2:	a1 5b       	subi	r26, 0xB1	; 177
 bb4:	be 4f       	sbci	r27, 0xFE	; 254
 bb6:	fe 01       	movw	r30, r28
 bb8:	31 96       	adiw	r30, 0x01	; 1
 bba:	2e 01       	movw	r4, r28
 bbc:	21 e1       	ldi	r18, 0x11	; 17
 bbe:	42 0e       	add	r4, r18
 bc0:	51 1c       	adc	r5, r1
 bc2:	4d 91       	ld	r20, X+
 bc4:	5d 91       	ld	r21, X+
 bc6:	6d 91       	ld	r22, X+
 bc8:	7d 91       	ld	r23, X+
 bca:	41 93       	st	Z+, r20
 bcc:	51 93       	st	Z+, r21
 bce:	61 93       	st	Z+, r22
 bd0:	71 93       	st	Z+, r23
 bd2:	e4 15       	cp	r30, r4
 bd4:	f5 05       	cpc	r31, r5
 bd6:	a9 f7       	brne	.-22     	; 0xbc2 <Update+0x9a>
 bd8:	19 81       	ldd	r17, Y+1	; 0x01
 bda:	0a 81       	ldd	r16, Y+2	; 0x02
 bdc:	3b 80       	ldd	r3, Y+3	; 0x03
 bde:	2c 80       	ldd	r2, Y+4	; 0x04
 be0:	3e 01       	movw	r6, r28
 be2:	35 e0       	ldi	r19, 0x05	; 5
 be4:	63 0e       	add	r6, r19
 be6:	71 1c       	adc	r7, r1
 be8:	5c 8a       	std	Y+20, r5	; 0x14
 bea:	4b 8a       	std	Y+19, r4	; 0x13
 bec:	39 8a       	std	Y+17, r3	; 0x11
 bee:	2a 8a       	std	Y+18, r2	; 0x12
 bf0:	d3 01       	movw	r26, r6
 bf2:	2d 90       	ld	r2, X+
 bf4:	3d 90       	ld	r3, X+
 bf6:	4d 90       	ld	r4, X+
 bf8:	5d 90       	ld	r5, X+
 bfa:	3d 01       	movw	r6, r26
 bfc:	21 2f       	mov	r18, r17
 bfe:	30 2f       	mov	r19, r16
 c00:	49 89       	ldd	r20, Y+17	; 0x11
 c02:	5a 89       	ldd	r21, Y+18	; 0x12
 c04:	c2 01       	movw	r24, r4
 c06:	b1 01       	movw	r22, r2
 c08:	f9 de       	rcall	.-526    	; 0x9fc <__gesf2>
 c0a:	18 16       	cp	r1, r24
 c0c:	24 f4       	brge	.+8      	; 0xc16 <Update+0xee>
 c0e:	12 2d       	mov	r17, r2
 c10:	03 2d       	mov	r16, r3
 c12:	49 8a       	std	Y+17, r4	; 0x11
 c14:	5a 8a       	std	Y+18, r5	; 0x12
 c16:	eb 89       	ldd	r30, Y+19	; 0x13
 c18:	fc 89       	ldd	r31, Y+20	; 0x14
 c1a:	6e 16       	cp	r6, r30
 c1c:	7f 06       	cpc	r7, r31
 c1e:	41 f7       	brne	.-48     	; 0xbf0 <Update+0xc8>
 c20:	39 88       	ldd	r3, Y+17	; 0x11
 c22:	2a 88       	ldd	r2, Y+18	; 0x12
 c24:	81 2f       	mov	r24, r17
 c26:	90 2f       	mov	r25, r16
 c28:	a3 2d       	mov	r26, r3
 c2a:	b2 2d       	mov	r27, r2
 c2c:	80 93 15 01 	sts	0x0115, r24	; 0x800115 <Q_MAX>
 c30:	90 93 16 01 	sts	0x0116, r25	; 0x800116 <Q_MAX+0x1>
 c34:	a0 93 17 01 	sts	0x0117, r26	; 0x800117 <Q_MAX+0x2>
 c38:	b0 93 18 01 	sts	0x0118, r27	; 0x800118 <Q_MAX+0x3>
 c3c:	2b 8d       	ldd	r18, Y+27	; 0x1b
 c3e:	3c 8d       	ldd	r19, Y+28	; 0x1c
 c40:	b9 01       	movw	r22, r18
 c42:	33 0f       	add	r19, r19
 c44:	88 0b       	sbc	r24, r24
 c46:	99 0b       	sbc	r25, r25
 c48:	f2 de       	rcall	.-540    	; 0xa2e <__floatsisf>
 c4a:	2b 01       	movw	r4, r22
 c4c:	3c 01       	movw	r6, r24
 c4e:	21 2f       	mov	r18, r17
 c50:	30 2f       	mov	r19, r16
 c52:	43 2d       	mov	r20, r3
 c54:	52 2d       	mov	r21, r2
 c56:	c5 01       	movw	r24, r10
 c58:	b4 01       	movw	r22, r8
 c5a:	43 d0       	rcall	.+134    	; 0xce2 <__mulsf3>
 c5c:	9b 01       	movw	r18, r22
 c5e:	ac 01       	movw	r20, r24
 c60:	c3 01       	movw	r24, r6
 c62:	b2 01       	movw	r22, r4
 c64:	da d1       	rcall	.+948    	; 0x101a <__addsf3>
 c66:	a7 01       	movw	r20, r14
 c68:	96 01       	movw	r18, r12
 c6a:	3b d0       	rcall	.+118    	; 0xce2 <__mulsf3>
 c6c:	4b 01       	movw	r8, r22
 c6e:	5c 01       	movw	r10, r24
 c70:	a7 01       	movw	r20, r14
 c72:	96 01       	movw	r18, r12
 c74:	60 e0       	ldi	r22, 0x00	; 0
 c76:	70 e0       	ldi	r23, 0x00	; 0
 c78:	80 e8       	ldi	r24, 0x80	; 128
 c7a:	9f e3       	ldi	r25, 0x3F	; 63
 c7c:	cd d1       	rcall	.+922    	; 0x1018 <__subsf3>
 c7e:	2d 89       	ldd	r18, Y+21	; 0x15
 c80:	3e 89       	ldd	r19, Y+22	; 0x16
 c82:	4f 89       	ldd	r20, Y+23	; 0x17
 c84:	58 8d       	ldd	r21, Y+24	; 0x18
 c86:	2d d0       	rcall	.+90     	; 0xce2 <__mulsf3>
 c88:	9b 01       	movw	r18, r22
 c8a:	ac 01       	movw	r20, r24
 c8c:	c5 01       	movw	r24, r10
 c8e:	b4 01       	movw	r22, r8
 c90:	c4 d1       	rcall	.+904    	; 0x101a <__addsf3>
 c92:	60 93 07 01 	sts	0x0107, r22	; 0x800107 <Q_NEW>
 c96:	70 93 08 01 	sts	0x0108, r23	; 0x800108 <Q_NEW+0x1>
 c9a:	80 93 09 01 	sts	0x0109, r24	; 0x800109 <Q_NEW+0x2>
 c9e:	90 93 0a 01 	sts	0x010A, r25	; 0x80010a <Q_NEW+0x3>
 ca2:	a9 8d       	ldd	r26, Y+25	; 0x19
 ca4:	ba 8d       	ldd	r27, Y+26	; 0x1a
 ca6:	6d 93       	st	X+, r22
 ca8:	7d 93       	st	X+, r23
 caa:	8d 93       	st	X+, r24
 cac:	9c 93       	st	X, r25
 cae:	13 97       	sbiw	r26, 0x03	; 3
 cb0:	6c 96       	adiw	r28, 0x1c	; 28
 cb2:	0f b6       	in	r0, 0x3f	; 63
 cb4:	f8 94       	cli
 cb6:	de bf       	out	0x3e, r29	; 62
 cb8:	0f be       	out	0x3f, r0	; 63
 cba:	cd bf       	out	0x3d, r28	; 61
 cbc:	df 91       	pop	r29
 cbe:	cf 91       	pop	r28
 cc0:	1f 91       	pop	r17
 cc2:	0f 91       	pop	r16
 cc4:	ff 90       	pop	r15
 cc6:	ef 90       	pop	r14
 cc8:	df 90       	pop	r13
 cca:	cf 90       	pop	r12
 ccc:	bf 90       	pop	r11
 cce:	af 90       	pop	r10
 cd0:	9f 90       	pop	r9
 cd2:	8f 90       	pop	r8
 cd4:	7f 90       	pop	r7
 cd6:	6f 90       	pop	r6
 cd8:	5f 90       	pop	r5
 cda:	4f 90       	pop	r4
 cdc:	3f 90       	pop	r3
 cde:	2f 90       	pop	r2
 ce0:	08 95       	ret

Disassembly of section .text.Train:

000003e8 <Train>:
 3e8:	2f 92       	push	r2
 3ea:	3f 92       	push	r3
 3ec:	4f 92       	push	r4
 3ee:	5f 92       	push	r5
 3f0:	6f 92       	push	r6
 3f2:	7f 92       	push	r7
 3f4:	8f 92       	push	r8
 3f6:	9f 92       	push	r9
 3f8:	af 92       	push	r10
 3fa:	bf 92       	push	r11
 3fc:	cf 92       	push	r12
 3fe:	df 92       	push	r13
 400:	ef 92       	push	r14
 402:	ff 92       	push	r15
 404:	0f 93       	push	r16
 406:	1f 93       	push	r17
 408:	cf 93       	push	r28
 40a:	df 93       	push	r29
 40c:	cd b7       	in	r28, 0x3d	; 61
 40e:	de b7       	in	r29, 0x3e	; 62
 410:	62 97       	sbiw	r28, 0x12	; 18
 412:	0f b6       	in	r0, 0x3f	; 63
 414:	f8 94       	cli
 416:	de bf       	out	0x3e, r29	; 62
 418:	0f be       	out	0x3f, r0	; 63
 41a:	cd bf       	out	0x3d, r28	; 61
 41c:	80 91 3b 01 	lds	r24, 0x013B	; 0x80013b <EPISODES>
 420:	90 91 3c 01 	lds	r25, 0x013C	; 0x80013c <EPISODES+0x1>
 424:	18 16       	cp	r1, r24
 426:	19 06       	cpc	r1, r25
 428:	0c f0       	brlt	.+2      	; 0x42c <__EEPROM_REGION_LENGTH__+0x2c>
 42a:	07 c1       	rjmp	.+526    	; 0x63a <__EEPROM_REGION_LENGTH__+0x23a>
 42c:	80 91 c6 00 	lds	r24, 0x00C6	; 0x8000c6 <__TEXT_REGION_LENGTH__+0x7f80c6>
 430:	82 33       	cpi	r24, 0x32	; 50
 432:	09 f4       	brne	.+2      	; 0x436 <__EEPROM_REGION_LENGTH__+0x36>
 434:	02 c1       	rjmp	.+516    	; 0x63a <__EEPROM_REGION_LENGTH__+0x23a>
 436:	61 2c       	mov	r6, r1
 438:	71 2c       	mov	r7, r1
 43a:	2e 01       	movw	r4, r28
 43c:	21 e1       	ldi	r18, 0x11	; 17
 43e:	42 0e       	add	r4, r18
 440:	51 1c       	adc	r5, r1
 442:	0e d2       	rcall	.+1052   	; 0x860 <forward>
 444:	31 d3       	rcall	.+1634   	; 0xaa8 <Obstacle_Avoider>
 446:	80 93 02 01 	sts	0x0102, r24	; 0x800102 <Obstacle>
 44a:	88 23       	and	r24, r24
 44c:	d1 f3       	breq	.-12     	; 0x442 <__EEPROM_REGION_LENGTH__+0x42>
 44e:	80 91 91 01 	lds	r24, 0x0191	; 0x800191 <STATE>
 452:	90 91 92 01 	lds	r25, 0x0192	; 0x800192 <STATE+0x1>
 456:	01 96       	adiw	r24, 0x01	; 1
 458:	83 70       	andi	r24, 0x03	; 3
 45a:	90 78       	andi	r25, 0x80	; 128
 45c:	97 fd       	sbrc	r25, 7
 45e:	17 c1       	rjmp	.+558    	; 0x68e <__EEPROM_REGION_LENGTH__+0x28e>
 460:	90 93 0c 01 	sts	0x010C, r25	; 0x80010c <NEXT_STATE+0x1>
 464:	80 93 0b 01 	sts	0x010B, r24	; 0x80010b <NEXT_STATE>
 468:	bd d2       	rcall	.+1402   	; 0x9e4 <rand>
 46a:	64 e6       	ldi	r22, 0x64	; 100
 46c:	70 e0       	ldi	r23, 0x00	; 0
 46e:	ca d2       	rcall	.+1428   	; 0xa04 <__divmodhi4>
 470:	bc 01       	movw	r22, r24
 472:	99 0f       	add	r25, r25
 474:	88 0b       	sbc	r24, r24
 476:	99 0b       	sbc	r25, r25
 478:	da d2       	rcall	.+1460   	; 0xa2e <__floatsisf>
 47a:	20 e0       	ldi	r18, 0x00	; 0
 47c:	30 e0       	ldi	r19, 0x00	; 0
 47e:	48 ec       	ldi	r20, 0xC8	; 200
 480:	52 e4       	ldi	r21, 0x42	; 66
 482:	10 d3       	rcall	.+1568   	; 0xaa4 <__divsf3>
 484:	9b 01       	movw	r18, r22
 486:	ac 01       	movw	r20, r24
 488:	60 93 0d 01 	sts	0x010D, r22	; 0x80010d <PROB>
 48c:	70 93 0e 01 	sts	0x010E, r23	; 0x80010e <PROB+0x1>
 490:	80 93 0f 01 	sts	0x010F, r24	; 0x80010f <PROB+0x2>
 494:	90 93 10 01 	sts	0x0110, r25	; 0x800110 <PROB+0x3>
 498:	60 91 3d 01 	lds	r22, 0x013D	; 0x80013d <EPSILON>
 49c:	70 91 3e 01 	lds	r23, 0x013E	; 0x80013e <EPSILON+0x1>
 4a0:	80 91 3f 01 	lds	r24, 0x013F	; 0x80013f <EPSILON+0x2>
 4a4:	90 91 40 01 	lds	r25, 0x0140	; 0x800140 <EPSILON+0x3>
 4a8:	a9 d2       	rcall	.+1362   	; 0x9fc <__gesf2>
 4aa:	87 ff       	sbrs	r24, 7
 4ac:	df c0       	rjmp	.+446    	; 0x66c <__EEPROM_REGION_LENGTH__+0x26c>
 4ae:	a0 91 91 01 	lds	r26, 0x0191	; 0x800191 <STATE>
 4b2:	b0 91 92 01 	lds	r27, 0x0192	; 0x800192 <STATE+0x1>
 4b6:	a2 95       	swap	r26
 4b8:	b2 95       	swap	r27
 4ba:	b0 7f       	andi	r27, 0xF0	; 240
 4bc:	ba 27       	eor	r27, r26
 4be:	a0 7f       	andi	r26, 0xF0	; 240
 4c0:	ba 27       	eor	r27, r26
 4c2:	a1 5b       	subi	r26, 0xB1	; 177
 4c4:	be 4f       	sbci	r27, 0xFE	; 254
 4c6:	fe 01       	movw	r30, r28
 4c8:	31 96       	adiw	r30, 0x01	; 1
 4ca:	4d 91       	ld	r20, X+
 4cc:	5d 91       	ld	r21, X+
 4ce:	6d 91       	ld	r22, X+
 4d0:	7d 91       	ld	r23, X+
 4d2:	41 93       	st	Z+, r20
 4d4:	51 93       	st	Z+, r21
 4d6:	61 93       	st	Z+, r22
 4d8:	71 93       	st	Z+, r23
 4da:	e4 15       	cp	r30, r4
 4dc:	f5 05       	cpc	r31, r5
 4de:	a9 f7       	brne	.-22     	; 0x4ca <__EEPROM_REGION_LENGTH__+0xca>
 4e0:	29 80       	ldd	r2, Y+1	; 0x01
 4e2:	3a 80       	ldd	r3, Y+2	; 0x02
 4e4:	cb 80       	ldd	r12, Y+3	; 0x03
 4e6:	dc 80       	ldd	r13, Y+4	; 0x04
 4e8:	7e 01       	movw	r14, r28
 4ea:	85 e0       	ldi	r24, 0x05	; 5
 4ec:	e8 0e       	add	r14, r24
 4ee:	f1 1c       	adc	r15, r1
 4f0:	01 e0       	ldi	r16, 0x01	; 1
 4f2:	10 e0       	ldi	r17, 0x00	; 0
 4f4:	f7 01       	movw	r30, r14
 4f6:	81 90       	ld	r8, Z+
 4f8:	91 90       	ld	r9, Z+
 4fa:	a1 90       	ld	r10, Z+
 4fc:	b1 90       	ld	r11, Z+
 4fe:	7f 01       	movw	r14, r30
 500:	91 01       	movw	r18, r2
 502:	a6 01       	movw	r20, r12
 504:	c5 01       	movw	r24, r10
 506:	b4 01       	movw	r22, r8
 508:	79 d2       	rcall	.+1266   	; 0x9fc <__gesf2>
 50a:	18 16       	cp	r1, r24
 50c:	24 f4       	brge	.+8      	; 0x516 <__EEPROM_REGION_LENGTH__+0x116>
 50e:	09 8b       	std	Y+17, r16	; 0x11
 510:	1a 8b       	std	Y+18, r17	; 0x12
 512:	14 01       	movw	r2, r8
 514:	65 01       	movw	r12, r10
 516:	0f 5f       	subi	r16, 0xFF	; 255
 518:	1f 4f       	sbci	r17, 0xFF	; 255
 51a:	04 30       	cpi	r16, 0x04	; 4
 51c:	11 05       	cpc	r17, r1
 51e:	51 f7       	brne	.-44     	; 0x4f4 <__EEPROM_REGION_LENGTH__+0xf4>
 520:	f9 89       	ldd	r31, Y+17	; 0x11
 522:	f0 93 8f 01 	sts	0x018F, r31	; 0x80018f <ACTION>
 526:	2a 89       	ldd	r18, Y+18	; 0x12
 528:	20 93 90 01 	sts	0x0190, r18	; 0x800190 <ACTION+0x1>
 52c:	8f 2f       	mov	r24, r31
 52e:	92 2f       	mov	r25, r18
 530:	82 30       	cpi	r24, 0x02	; 2
 532:	91 05       	cpc	r25, r1
 534:	09 f4       	brne	.+2      	; 0x538 <__EEPROM_REGION_LENGTH__+0x138>
 536:	a7 c0       	rjmp	.+334    	; 0x686 <__EEPROM_REGION_LENGTH__+0x286>
 538:	83 30       	cpi	r24, 0x03	; 3
 53a:	91 05       	cpc	r25, r1
 53c:	09 f4       	brne	.+2      	; 0x540 <__EEPROM_REGION_LENGTH__+0x140>
 53e:	a5 c0       	rjmp	.+330    	; 0x68a <__EEPROM_REGION_LENGTH__+0x28a>
 540:	01 97       	sbiw	r24, 0x01	; 1
 542:	09 f4       	brne	.+2      	; 0x546 <__EEPROM_REGION_LENGTH__+0x146>
 544:	9d d1       	rcall	.+826    	; 0x880 <backward>
 546:	8f e7       	ldi	r24, 0x7F	; 127
 548:	94 e8       	ldi	r25, 0x84	; 132
 54a:	ee e1       	ldi	r30, 0x1E	; 30
 54c:	81 50       	subi	r24, 0x01	; 1
 54e:	90 40       	sbci	r25, 0x00	; 0
 550:	e0 40       	sbci	r30, 0x00	; 0
 552:	e1 f7       	brne	.-8      	; 0x54c <__EEPROM_REGION_LENGTH__+0x14c>
 554:	00 c0       	rjmp	.+0      	; 0x556 <__EEPROM_REGION_LENGTH__+0x156>
 556:	00 00       	nop
 558:	a3 d1       	rcall	.+838    	; 0x8a0 <stop>
 55a:	e0 91 91 01 	lds	r30, 0x0191	; 0x800191 <STATE>
 55e:	f0 91 92 01 	lds	r31, 0x0192	; 0x800192 <STATE+0x1>
 562:	ee 0f       	add	r30, r30
 564:	ff 1f       	adc	r31, r31
 566:	ee 0f       	add	r30, r30
 568:	ff 1f       	adc	r31, r31
 56a:	80 91 8f 01 	lds	r24, 0x018F	; 0x80018f <ACTION>
 56e:	90 91 90 01 	lds	r25, 0x0190	; 0x800190 <ACTION+0x1>
 572:	e8 0f       	add	r30, r24
 574:	f9 1f       	adc	r31, r25
 576:	ee 0f       	add	r30, r30
 578:	ff 1f       	adc	r31, r31
 57a:	e5 5e       	subi	r30, 0xE5	; 229
 57c:	fe 4f       	sbci	r31, 0xFE	; 254
 57e:	80 81       	ld	r24, Z
 580:	91 81       	ldd	r25, Z+1	; 0x01
 582:	90 93 04 01 	sts	0x0104, r25	; 0x800104 <REWARD+0x1>
 586:	80 93 03 01 	sts	0x0103, r24	; 0x800103 <REWARD>
 58a:	ff e9       	ldi	r31, 0x9F	; 159
 58c:	26 e8       	ldi	r18, 0x86	; 134
 58e:	81 e0       	ldi	r24, 0x01	; 1
 590:	f1 50       	subi	r31, 0x01	; 1
 592:	20 40       	sbci	r18, 0x00	; 0
 594:	80 40       	sbci	r24, 0x00	; 0
 596:	e1 f7       	brne	.-8      	; 0x590 <__EEPROM_REGION_LENGTH__+0x190>
 598:	00 c0       	rjmp	.+0      	; 0x59a <__EEPROM_REGION_LENGTH__+0x19a>
 59a:	00 00       	nop
 59c:	80 90 41 01 	lds	r8, 0x0141	; 0x800141 <GAMMA>
 5a0:	90 90 42 01 	lds	r9, 0x0142	; 0x800142 <GAMMA+0x1>
 5a4:	a0 90 43 01 	lds	r10, 0x0143	; 0x800143 <GAMMA+0x2>
 5a8:	b0 90 44 01 	lds	r11, 0x0144	; 0x800144 <GAMMA+0x3>
 5ac:	c0 90 45 01 	lds	r12, 0x0145	; 0x800145 <ALPHA>
 5b0:	d0 90 46 01 	lds	r13, 0x0146	; 0x800146 <ALPHA+0x1>
 5b4:	e0 90 47 01 	lds	r14, 0x0147	; 0x800147 <ALPHA+0x2>
 5b8:	f0 90 48 01 	lds	r15, 0x0148	; 0x800148 <ALPHA+0x3>
 5bc:	00 91 03 01 	lds	r16, 0x0103	; 0x800103 <REWARD>
 5c0:	10 91 04 01 	lds	r17, 0x0104	; 0x800104 <REWARD+0x1>
 5c4:	20 91 8f 01 	lds	r18, 0x018F	; 0x80018f <ACTION>
 5c8:	30 91 90 01 	lds	r19, 0x0190	; 0x800190 <ACTION+0x1>
 5cc:	40 91 0b 01 	lds	r20, 0x010B	; 0x80010b <NEXT_STATE>
 5d0:	50 91 0c 01 	lds	r21, 0x010C	; 0x80010c <NEXT_STATE+0x1>
 5d4:	60 91 91 01 	lds	r22, 0x0191	; 0x800191 <STATE>
 5d8:	70 91 92 01 	lds	r23, 0x0192	; 0x800192 <STATE+0x1>
 5dc:	8f e4       	ldi	r24, 0x4F	; 79
 5de:	91 e0       	ldi	r25, 0x01	; 1
 5e0:	a3 d2       	rcall	.+1350   	; 0xb28 <Update>
 5e2:	80 91 0b 01 	lds	r24, 0x010B	; 0x80010b <NEXT_STATE>
 5e6:	90 91 0c 01 	lds	r25, 0x010C	; 0x80010c <NEXT_STATE+0x1>
 5ea:	90 93 92 01 	sts	0x0192, r25	; 0x800192 <STATE+0x1>
 5ee:	80 93 91 01 	sts	0x0191, r24	; 0x800191 <STATE>
 5f2:	28 e4       	ldi	r18, 0x48	; 72
 5f4:	31 ee       	ldi	r19, 0xE1	; 225
 5f6:	4a e7       	ldi	r20, 0x7A	; 122
 5f8:	5f e3       	ldi	r21, 0x3F	; 63
 5fa:	60 91 3d 01 	lds	r22, 0x013D	; 0x80013d <EPSILON>
 5fe:	70 91 3e 01 	lds	r23, 0x013E	; 0x80013e <EPSILON+0x1>
 602:	80 91 3f 01 	lds	r24, 0x013F	; 0x80013f <EPSILON+0x2>
 606:	90 91 40 01 	lds	r25, 0x0140	; 0x800140 <EPSILON+0x3>
 60a:	6b d3       	rcall	.+1750   	; 0xce2 <__mulsf3>
 60c:	60 93 3d 01 	sts	0x013D, r22	; 0x80013d <EPSILON>
 610:	70 93 3e 01 	sts	0x013E, r23	; 0x80013e <EPSILON+0x1>
 614:	80 93 3f 01 	sts	0x013F, r24	; 0x80013f <EPSILON+0x2>
 618:	90 93 40 01 	sts	0x0140, r25	; 0x800140 <EPSILON+0x3>
 61c:	9f ef       	ldi	r25, 0xFF	; 255
 61e:	69 1a       	sub	r6, r25
 620:	79 0a       	sbc	r7, r25
 622:	80 91 3b 01 	lds	r24, 0x013B	; 0x80013b <EPISODES>
 626:	90 91 3c 01 	lds	r25, 0x013C	; 0x80013c <EPISODES+0x1>
 62a:	68 16       	cp	r6, r24
 62c:	79 06       	cpc	r7, r25
 62e:	2c f4       	brge	.+10     	; 0x63a <__EEPROM_REGION_LENGTH__+0x23a>
 630:	80 91 c6 00 	lds	r24, 0x00C6	; 0x8000c6 <__TEXT_REGION_LENGTH__+0x7f80c6>
 634:	82 33       	cpi	r24, 0x32	; 50
 636:	09 f0       	breq	.+2      	; 0x63a <__EEPROM_REGION_LENGTH__+0x23a>
 638:	04 cf       	rjmp	.-504    	; 0x442 <__EEPROM_REGION_LENGTH__+0x42>
 63a:	62 96       	adiw	r28, 0x12	; 18
 63c:	0f b6       	in	r0, 0x3f	; 63
 63e:	f8 94       	cli
 640:	de bf       	out	0x3e, r29	; 62
 642:	0f be       	out	0x3f, r0	; 63
 644:	cd bf       	out	0x3d, r28	; 61
 646:	df 91       	pop	r29
 648:	cf 91       	pop	r28
 64a:	1f 91       	pop	r17
 64c:	0f 91       	pop	r16
 64e:	ff 90       	pop	r15
 650:	ef 90       	pop	r14
 652:	df 90       	pop	r13
 654:	cf 90       	pop	r12
 656:	bf 90       	pop	r11
 658:	af 90       	pop	r10
 65a:	9f 90       	pop	r9
 65c:	8f 90       	pop	r8
 65e:	7f 90       	pop	r7
 660:	6f 90       	pop	r6
 662:	5f 90       	pop	r5
 664:	4f 90       	pop	r4
 666:	3f 90       	pop	r3
 668:	2f 90       	pop	r2
 66a:	3d c3       	rjmp	.+1658   	; 0xce6 <save_q_table>
 66c:	bb d1       	rcall	.+886    	; 0x9e4 <rand>
 66e:	83 70       	andi	r24, 0x03	; 3
 670:	90 78       	andi	r25, 0x80	; 128
 672:	97 fd       	sbrc	r25, 7
 674:	11 c0       	rjmp	.+34     	; 0x698 <__EEPROM_REGION_LENGTH__+0x298>
 676:	90 93 90 01 	sts	0x0190, r25	; 0x800190 <ACTION+0x1>
 67a:	80 93 8f 01 	sts	0x018F, r24	; 0x80018f <ACTION>
 67e:	82 30       	cpi	r24, 0x02	; 2
 680:	91 05       	cpc	r25, r1
 682:	09 f0       	breq	.+2      	; 0x686 <__EEPROM_REGION_LENGTH__+0x286>
 684:	59 cf       	rjmp	.-334    	; 0x538 <__EEPROM_REGION_LENGTH__+0x138>
 686:	1c d1       	rcall	.+568    	; 0x8c0 <right>
 688:	5e cf       	rjmp	.-324    	; 0x546 <__EEPROM_REGION_LENGTH__+0x146>
 68a:	2a d1       	rcall	.+596    	; 0x8e0 <left>
 68c:	5c cf       	rjmp	.-328    	; 0x546 <__EEPROM_REGION_LENGTH__+0x146>
 68e:	01 97       	sbiw	r24, 0x01	; 1
 690:	8c 6f       	ori	r24, 0xFC	; 252
 692:	9f 6f       	ori	r25, 0xFF	; 255
 694:	01 96       	adiw	r24, 0x01	; 1
 696:	e4 ce       	rjmp	.-568    	; 0x460 <__EEPROM_REGION_LENGTH__+0x60>
 698:	01 97       	sbiw	r24, 0x01	; 1
 69a:	8c 6f       	ori	r24, 0xFC	; 252
 69c:	9f 6f       	ori	r25, 0xFF	; 255
 69e:	01 96       	adiw	r24, 0x01	; 1
 6a0:	ea cf       	rjmp	.-44     	; 0x676 <__EEPROM_REGION_LENGTH__+0x276>

Disassembly of section .text.Test:

000006a2 <Test>:
 6a2:	2f 92       	push	r2
 6a4:	3f 92       	push	r3
 6a6:	4f 92       	push	r4
 6a8:	5f 92       	push	r5
 6aa:	6f 92       	push	r6
 6ac:	7f 92       	push	r7
 6ae:	8f 92       	push	r8
 6b0:	9f 92       	push	r9
 6b2:	af 92       	push	r10
 6b4:	bf 92       	push	r11
 6b6:	cf 92       	push	r12
 6b8:	df 92       	push	r13
 6ba:	ef 92       	push	r14
 6bc:	ff 92       	push	r15
 6be:	0f 93       	push	r16
 6c0:	1f 93       	push	r17
 6c2:	cf 93       	push	r28
 6c4:	df 93       	push	r29
 6c6:	cd b7       	in	r28, 0x3d	; 61
 6c8:	de b7       	in	r29, 0x3e	; 62
 6ca:	60 97       	sbiw	r28, 0x10	; 16
 6cc:	0f b6       	in	r0, 0x3f	; 63
 6ce:	f8 94       	cli
 6d0:	de bf       	out	0x3e, r29	; 62
 6d2:	0f be       	out	0x3f, r0	; 63
 6d4:	cd bf       	out	0x3d, r28	; 61
 6d6:	67 d3       	rcall	.+1742   	; 0xda6 <retrive_q_table>
 6d8:	6e 01       	movw	r12, r28
 6da:	21 e1       	ldi	r18, 0x11	; 17
 6dc:	c2 0e       	add	r12, r18
 6de:	d1 1c       	adc	r13, r1
 6e0:	06 c0       	rjmp	.+12     	; 0x6ee <Test+0x4c>
 6e2:	be d0       	rcall	.+380    	; 0x860 <forward>
 6e4:	e1 d1       	rcall	.+962    	; 0xaa8 <Obstacle_Avoider>
 6e6:	80 93 02 01 	sts	0x0102, r24	; 0x800102 <Obstacle>
 6ea:	81 11       	cpse	r24, r1
 6ec:	1d c0       	rjmp	.+58     	; 0x728 <Test+0x86>
 6ee:	80 91 c6 00 	lds	r24, 0x00C6	; 0x8000c6 <__TEXT_REGION_LENGTH__+0x7f80c6>
 6f2:	82 33       	cpi	r24, 0x32	; 50
 6f4:	b1 f7       	brne	.-20     	; 0x6e2 <Test+0x40>
 6f6:	60 96       	adiw	r28, 0x10	; 16
 6f8:	0f b6       	in	r0, 0x3f	; 63
 6fa:	f8 94       	cli
 6fc:	de bf       	out	0x3e, r29	; 62
 6fe:	0f be       	out	0x3f, r0	; 63
 700:	cd bf       	out	0x3d, r28	; 61
 702:	df 91       	pop	r29
 704:	cf 91       	pop	r28
 706:	1f 91       	pop	r17
 708:	0f 91       	pop	r16
 70a:	ff 90       	pop	r15
 70c:	ef 90       	pop	r14
 70e:	df 90       	pop	r13
 710:	cf 90       	pop	r12
 712:	bf 90       	pop	r11
 714:	af 90       	pop	r10
 716:	9f 90       	pop	r9
 718:	8f 90       	pop	r8
 71a:	7f 90       	pop	r7
 71c:	6f 90       	pop	r6
 71e:	5f 90       	pop	r5
 720:	4f 90       	pop	r4
 722:	3f 90       	pop	r3
 724:	2f 90       	pop	r2
 726:	08 95       	ret
 728:	bb d0       	rcall	.+374    	; 0x8a0 <stop>
 72a:	8f eb       	ldi	r24, 0xBF	; 191
 72c:	97 e2       	ldi	r25, 0x27	; 39
 72e:	e9 e0       	ldi	r30, 0x09	; 9
 730:	81 50       	subi	r24, 0x01	; 1
 732:	90 40       	sbci	r25, 0x00	; 0
 734:	e0 40       	sbci	r30, 0x00	; 0
 736:	e1 f7       	brne	.-8      	; 0x730 <Test+0x8e>
 738:	00 c0       	rjmp	.+0      	; 0x73a <Test+0x98>
 73a:	00 00       	nop
 73c:	fa d2       	rcall	.+1524   	; 0xd32 <GET_STATE>
 73e:	90 93 92 01 	sts	0x0192, r25	; 0x800192 <STATE+0x1>
 742:	80 93 91 01 	sts	0x0191, r24	; 0x800191 <STATE>
 746:	82 95       	swap	r24
 748:	92 95       	swap	r25
 74a:	90 7f       	andi	r25, 0xF0	; 240
 74c:	98 27       	eor	r25, r24
 74e:	80 7f       	andi	r24, 0xF0	; 240
 750:	98 27       	eor	r25, r24
 752:	fc 01       	movw	r30, r24
 754:	e1 5b       	subi	r30, 0xB1	; 177
 756:	fe 4f       	sbci	r31, 0xFE	; 254
 758:	de 01       	movw	r26, r28
 75a:	11 96       	adiw	r26, 0x01	; 1
 75c:	41 91       	ld	r20, Z+
 75e:	51 91       	ld	r21, Z+
 760:	61 91       	ld	r22, Z+
 762:	71 91       	ld	r23, Z+
 764:	4d 93       	st	X+, r20
 766:	5d 93       	st	X+, r21
 768:	6d 93       	st	X+, r22
 76a:	7d 93       	st	X+, r23
 76c:	ac 15       	cp	r26, r12
 76e:	bd 05       	cpc	r27, r13
 770:	a9 f7       	brne	.-22     	; 0x75c <Test+0xba>
 772:	29 80       	ldd	r2, Y+1	; 0x01
 774:	3a 80       	ldd	r3, Y+2	; 0x02
 776:	8b 80       	ldd	r8, Y+3	; 0x03
 778:	9c 80       	ldd	r9, Y+4	; 0x04
 77a:	7e 01       	movw	r14, r28
 77c:	f5 e0       	ldi	r31, 0x05	; 5
 77e:	ef 0e       	add	r14, r31
 780:	f1 1c       	adc	r15, r1
 782:	01 e0       	ldi	r16, 0x01	; 1
 784:	10 e0       	ldi	r17, 0x00	; 0
 786:	f7 01       	movw	r30, r14
 788:	41 90       	ld	r4, Z+
 78a:	51 90       	ld	r5, Z+
 78c:	61 90       	ld	r6, Z+
 78e:	71 90       	ld	r7, Z+
 790:	7f 01       	movw	r14, r30
 792:	91 01       	movw	r18, r2
 794:	a4 01       	movw	r20, r8
 796:	c3 01       	movw	r24, r6
 798:	b2 01       	movw	r22, r4
 79a:	30 d1       	rcall	.+608    	; 0x9fc <__gesf2>
 79c:	18 16       	cp	r1, r24
 79e:	1c f4       	brge	.+6      	; 0x7a6 <Test+0x104>
 7a0:	58 01       	movw	r10, r16
 7a2:	12 01       	movw	r2, r4
 7a4:	43 01       	movw	r8, r6
 7a6:	0f 5f       	subi	r16, 0xFF	; 255
 7a8:	1f 4f       	sbci	r17, 0xFF	; 255
 7aa:	04 30       	cpi	r16, 0x04	; 4
 7ac:	11 05       	cpc	r17, r1
 7ae:	59 f7       	brne	.-42     	; 0x786 <Test+0xe4>
 7b0:	b0 92 90 01 	sts	0x0190, r11	; 0x800190 <ACTION+0x1>
 7b4:	a0 92 8f 01 	sts	0x018F, r10	; 0x80018f <ACTION>
 7b8:	f2 e0       	ldi	r31, 0x02	; 2
 7ba:	af 16       	cp	r10, r31
 7bc:	b1 04       	cpc	r11, r1
 7be:	09 f1       	breq	.+66     	; 0x802 <__DATA_REGION_LENGTH__+0x2>
 7c0:	23 e0       	ldi	r18, 0x03	; 3
 7c2:	a2 16       	cp	r10, r18
 7c4:	b1 04       	cpc	r11, r1
 7c6:	81 f0       	breq	.+32     	; 0x7e8 <Test+0x146>
 7c8:	81 e0       	ldi	r24, 0x01	; 1
 7ca:	a8 16       	cp	r10, r24
 7cc:	b1 04       	cpc	r11, r1
 7ce:	09 f4       	brne	.+2      	; 0x7d2 <Test+0x130>
 7d0:	57 d0       	rcall	.+174    	; 0x880 <backward>
 7d2:	ef e7       	ldi	r30, 0x7F	; 127
 7d4:	f4 e8       	ldi	r31, 0x84	; 132
 7d6:	2e e1       	ldi	r18, 0x1E	; 30
 7d8:	e1 50       	subi	r30, 0x01	; 1
 7da:	f0 40       	sbci	r31, 0x00	; 0
 7dc:	20 40       	sbci	r18, 0x00	; 0
 7de:	e1 f7       	brne	.-8      	; 0x7d8 <Test+0x136>
 7e0:	00 c0       	rjmp	.+0      	; 0x7e2 <Test+0x140>
 7e2:	00 00       	nop
 7e4:	5d d0       	rcall	.+186    	; 0x8a0 <stop>
 7e6:	83 cf       	rjmp	.-250    	; 0x6ee <Test+0x4c>
 7e8:	4b d0       	rcall	.+150    	; 0x880 <backward>
 7ea:	2f eb       	ldi	r18, 0xBF	; 191
 7ec:	87 e2       	ldi	r24, 0x27	; 39
 7ee:	99 e0       	ldi	r25, 0x09	; 9
 7f0:	21 50       	subi	r18, 0x01	; 1
 7f2:	80 40       	sbci	r24, 0x00	; 0
 7f4:	90 40       	sbci	r25, 0x00	; 0
 7f6:	e1 f7       	brne	.-8      	; 0x7f0 <Test+0x14e>
 7f8:	00 c0       	rjmp	.+0      	; 0x7fa <Test+0x158>
 7fa:	00 00       	nop
 7fc:	51 d0       	rcall	.+162    	; 0x8a0 <stop>
 7fe:	70 d0       	rcall	.+224    	; 0x8e0 <left>
 800:	e8 cf       	rjmp	.-48     	; 0x7d2 <Test+0x130>
 802:	3e d0       	rcall	.+124    	; 0x880 <backward>
 804:	9f eb       	ldi	r25, 0xBF	; 191
 806:	e7 e2       	ldi	r30, 0x27	; 39
 808:	f9 e0       	ldi	r31, 0x09	; 9
 80a:	91 50       	subi	r25, 0x01	; 1
 80c:	e0 40       	sbci	r30, 0x00	; 0
 80e:	f0 40       	sbci	r31, 0x00	; 0
 810:	e1 f7       	brne	.-8      	; 0x80a <__DATA_REGION_LENGTH__+0xa>
 812:	00 c0       	rjmp	.+0      	; 0x814 <__DATA_REGION_LENGTH__+0x14>
 814:	00 00       	nop
 816:	44 d0       	rcall	.+136    	; 0x8a0 <stop>
 818:	53 d0       	rcall	.+166    	; 0x8c0 <right>
 81a:	db cf       	rjmp	.-74     	; 0x7d2 <Test+0x130>

Disassembly of section .text.config_RC_Driver:

0000038a <config_RC_Driver>:
 38a:	41 e0       	ldi	r20, 0x01	; 1
 38c:	66 e0       	ldi	r22, 0x06	; 6
 38e:	83 e0       	ldi	r24, 0x03	; 3
 390:	f0 de       	rcall	.-544    	; 0x172 <DIO_SetPinDirection>
 392:	84 b5       	in	r24, 0x24	; 36
 394:	81 60       	ori	r24, 0x01	; 1
 396:	84 bd       	out	0x24, r24	; 36
 398:	84 b5       	in	r24, 0x24	; 36
 39a:	82 60       	ori	r24, 0x02	; 2
 39c:	84 bd       	out	0x24, r24	; 36
 39e:	85 b5       	in	r24, 0x25	; 37
 3a0:	88 60       	ori	r24, 0x08	; 8
 3a2:	85 bd       	out	0x25, r24	; 37
 3a4:	84 b5       	in	r24, 0x24	; 36
 3a6:	80 64       	ori	r24, 0x40	; 64
 3a8:	84 bd       	out	0x24, r24	; 36
 3aa:	85 b5       	in	r24, 0x25	; 37
 3ac:	81 60       	ori	r24, 0x01	; 1
 3ae:	85 bd       	out	0x25, r24	; 37
 3b0:	80 e5       	ldi	r24, 0x50	; 80
 3b2:	87 bd       	out	0x27, r24	; 39
 3b4:	08 95       	ret

Disassembly of section .text.forward:

00000860 <forward>:
 860:	41 e0       	ldi	r20, 0x01	; 1
 862:	62 e0       	ldi	r22, 0x02	; 2
 864:	83 e0       	ldi	r24, 0x03	; 3
 866:	d4 dc       	rcall	.-1624   	; 0x210 <DIO_SetPinValue>
 868:	40 e0       	ldi	r20, 0x00	; 0
 86a:	63 e0       	ldi	r22, 0x03	; 3
 86c:	83 e0       	ldi	r24, 0x03	; 3
 86e:	d0 dc       	rcall	.-1632   	; 0x210 <DIO_SetPinValue>
 870:	41 e0       	ldi	r20, 0x01	; 1
 872:	64 e0       	ldi	r22, 0x04	; 4
 874:	83 e0       	ldi	r24, 0x03	; 3
 876:	cc dc       	rcall	.-1640   	; 0x210 <DIO_SetPinValue>
 878:	40 e0       	ldi	r20, 0x00	; 0
 87a:	65 e0       	ldi	r22, 0x05	; 5
 87c:	83 e0       	ldi	r24, 0x03	; 3
 87e:	c8 cc       	rjmp	.-1648   	; 0x210 <DIO_SetPinValue>

Disassembly of section .text.backward:

00000880 <backward>:
 880:	40 e0       	ldi	r20, 0x00	; 0
 882:	62 e0       	ldi	r22, 0x02	; 2
 884:	83 e0       	ldi	r24, 0x03	; 3
 886:	c4 dc       	rcall	.-1656   	; 0x210 <DIO_SetPinValue>
 888:	41 e0       	ldi	r20, 0x01	; 1
 88a:	63 e0       	ldi	r22, 0x03	; 3
 88c:	83 e0       	ldi	r24, 0x03	; 3
 88e:	c0 dc       	rcall	.-1664   	; 0x210 <DIO_SetPinValue>
 890:	40 e0       	ldi	r20, 0x00	; 0
 892:	64 e0       	ldi	r22, 0x04	; 4
 894:	83 e0       	ldi	r24, 0x03	; 3
 896:	bc dc       	rcall	.-1672   	; 0x210 <DIO_SetPinValue>
 898:	41 e0       	ldi	r20, 0x01	; 1
 89a:	65 e0       	ldi	r22, 0x05	; 5
 89c:	83 e0       	ldi	r24, 0x03	; 3
 89e:	b8 cc       	rjmp	.-1680   	; 0x210 <DIO_SetPinValue>

Disassembly of section .text.right:

000008c0 <right>:
 8c0:	41 e0       	ldi	r20, 0x01	; 1
 8c2:	62 e0       	ldi	r22, 0x02	; 2
 8c4:	83 e0       	ldi	r24, 0x03	; 3
 8c6:	a4 dc       	rcall	.-1720   	; 0x210 <DIO_SetPinValue>
 8c8:	40 e0       	ldi	r20, 0x00	; 0
 8ca:	63 e0       	ldi	r22, 0x03	; 3
 8cc:	83 e0       	ldi	r24, 0x03	; 3
 8ce:	a0 dc       	rcall	.-1728   	; 0x210 <DIO_SetPinValue>
 8d0:	40 e0       	ldi	r20, 0x00	; 0
 8d2:	64 e0       	ldi	r22, 0x04	; 4
 8d4:	83 e0       	ldi	r24, 0x03	; 3
 8d6:	9c dc       	rcall	.-1736   	; 0x210 <DIO_SetPinValue>
 8d8:	41 e0       	ldi	r20, 0x01	; 1
 8da:	65 e0       	ldi	r22, 0x05	; 5
 8dc:	83 e0       	ldi	r24, 0x03	; 3
 8de:	98 cc       	rjmp	.-1744   	; 0x210 <DIO_SetPinValue>

Disassembly of section .text.left:

000008e0 <left>:
 8e0:	40 e0       	ldi	r20, 0x00	; 0
 8e2:	62 e0       	ldi	r22, 0x02	; 2
 8e4:	83 e0       	ldi	r24, 0x03	; 3
 8e6:	94 dc       	rcall	.-1752   	; 0x210 <DIO_SetPinValue>
 8e8:	41 e0       	ldi	r20, 0x01	; 1
 8ea:	63 e0       	ldi	r22, 0x03	; 3
 8ec:	83 e0       	ldi	r24, 0x03	; 3
 8ee:	90 dc       	rcall	.-1760   	; 0x210 <DIO_SetPinValue>
 8f0:	41 e0       	ldi	r20, 0x01	; 1
 8f2:	64 e0       	ldi	r22, 0x04	; 4
 8f4:	83 e0       	ldi	r24, 0x03	; 3
 8f6:	8c dc       	rcall	.-1768   	; 0x210 <DIO_SetPinValue>
 8f8:	40 e0       	ldi	r20, 0x00	; 0
 8fa:	65 e0       	ldi	r22, 0x05	; 5
 8fc:	83 e0       	ldi	r24, 0x03	; 3
 8fe:	88 cc       	rjmp	.-1776   	; 0x210 <DIO_SetPinValue>

Disassembly of section .text.stop:

000008a0 <stop>:
 8a0:	40 e0       	ldi	r20, 0x00	; 0
 8a2:	62 e0       	ldi	r22, 0x02	; 2
 8a4:	83 e0       	ldi	r24, 0x03	; 3
 8a6:	b4 dc       	rcall	.-1688   	; 0x210 <DIO_SetPinValue>
 8a8:	40 e0       	ldi	r20, 0x00	; 0
 8aa:	63 e0       	ldi	r22, 0x03	; 3
 8ac:	83 e0       	ldi	r24, 0x03	; 3
 8ae:	b0 dc       	rcall	.-1696   	; 0x210 <DIO_SetPinValue>
 8b0:	40 e0       	ldi	r20, 0x00	; 0
 8b2:	64 e0       	ldi	r22, 0x04	; 4
 8b4:	83 e0       	ldi	r24, 0x03	; 3
 8b6:	ac dc       	rcall	.-1704   	; 0x210 <DIO_SetPinValue>
 8b8:	40 e0       	ldi	r20, 0x00	; 0
 8ba:	65 e0       	ldi	r22, 0x05	; 5
 8bc:	83 e0       	ldi	r24, 0x03	; 3
 8be:	a8 cc       	rjmp	.-1712   	; 0x210 <DIO_SetPinValue>

Disassembly of section .text.config_servo_timer:

00000900 <config_servo_timer>:
 900:	41 e0       	ldi	r20, 0x01	; 1
 902:	61 e0       	ldi	r22, 0x01	; 1
 904:	81 e0       	ldi	r24, 0x01	; 1
 906:	35 dc       	rcall	.-1942   	; 0x172 <DIO_SetPinDirection>
 908:	e1 e8       	ldi	r30, 0x81	; 129
 90a:	f0 e0       	ldi	r31, 0x00	; 0
 90c:	80 81       	ld	r24, Z
 90e:	81 60       	ori	r24, 0x01	; 1
 910:	80 83       	st	Z, r24
 912:	80 81       	ld	r24, Z
 914:	82 60       	ori	r24, 0x02	; 2
 916:	80 83       	st	Z, r24
 918:	80 81       	ld	r24, Z
 91a:	8b 7f       	andi	r24, 0xFB	; 251
 91c:	80 83       	st	Z, r24
 91e:	a0 e8       	ldi	r26, 0x80	; 128
 920:	b0 e0       	ldi	r27, 0x00	; 0
 922:	8c 91       	ld	r24, X
 924:	82 60       	ori	r24, 0x02	; 2
 926:	8c 93       	st	X, r24
 928:	80 81       	ld	r24, Z
 92a:	88 60       	ori	r24, 0x08	; 8
 92c:	80 83       	st	Z, r24
 92e:	80 81       	ld	r24, Z
 930:	80 61       	ori	r24, 0x10	; 16
 932:	80 83       	st	Z, r24
 934:	8c 91       	ld	r24, X
 936:	8f 7b       	andi	r24, 0xBF	; 191
 938:	8c 93       	st	X, r24
 93a:	8c 91       	ld	r24, X
 93c:	80 68       	ori	r24, 0x80	; 128
 93e:	8c 93       	st	X, r24
 940:	87 e8       	ldi	r24, 0x87	; 135
 942:	93 e1       	ldi	r25, 0x13	; 19
 944:	90 93 87 00 	sts	0x0087, r25	; 0x800087 <__TEXT_REGION_LENGTH__+0x7f8087>
 948:	80 93 86 00 	sts	0x0086, r24	; 0x800086 <__TEXT_REGION_LENGTH__+0x7f8086>
 94c:	10 92 85 00 	sts	0x0085, r1	; 0x800085 <__TEXT_REGION_LENGTH__+0x7f8085>
 950:	10 92 84 00 	sts	0x0084, r1	; 0x800084 <__TEXT_REGION_LENGTH__+0x7f8084>
 954:	08 95       	ret

Disassembly of section .text.set_servo_angel:

000003b6 <set_servo_angel>:
 3b6:	cf 93       	push	r28
 3b8:	c8 2f       	mov	r28, r24
 3ba:	a2 d2       	rcall	.+1348   	; 0x900 <config_servo_timer>
 3bc:	cc 23       	and	r28, r28
 3be:	89 f0       	breq	.+34     	; 0x3e2 <set_servo_angel+0x2c>
 3c0:	ca 35       	cpi	r28, 0x5A	; 90
 3c2:	61 f0       	breq	.+24     	; 0x3dc <set_servo_angel+0x26>
 3c4:	c6 3a       	cpi	r28, 0xA6	; 166
 3c6:	11 f0       	breq	.+4      	; 0x3cc <set_servo_angel+0x16>
 3c8:	cf 91       	pop	r28
 3ca:	08 95       	ret
 3cc:	85 e9       	ldi	r24, 0x95	; 149
 3ce:	90 e0       	ldi	r25, 0x00	; 0
 3d0:	90 93 89 00 	sts	0x0089, r25	; 0x800089 <__TEXT_REGION_LENGTH__+0x7f8089>
 3d4:	80 93 88 00 	sts	0x0088, r24	; 0x800088 <__TEXT_REGION_LENGTH__+0x7f8088>
 3d8:	cf 91       	pop	r28
 3da:	08 95       	ret
 3dc:	87 e5       	ldi	r24, 0x57	; 87
 3de:	92 e0       	ldi	r25, 0x02	; 2
 3e0:	f7 cf       	rjmp	.-18     	; 0x3d0 <set_servo_angel+0x1a>
 3e2:	8d e5       	ldi	r24, 0x5D	; 93
 3e4:	91 e0       	ldi	r25, 0x01	; 1
 3e6:	f4 cf       	rjmp	.-24     	; 0x3d0 <set_servo_angel+0x1a>

Disassembly of section .text.UART_init:

000002ae <UART_init>:
 2ae:	e1 ec       	ldi	r30, 0xC1	; 193
 2b0:	f0 e0       	ldi	r31, 0x00	; 0
 2b2:	20 81       	ld	r18, Z
 2b4:	28 61       	ori	r18, 0x18	; 24
 2b6:	20 83       	st	Z, r18
 2b8:	26 e0       	ldi	r18, 0x06	; 6
 2ba:	20 93 c2 00 	sts	0x00C2, r18	; 0x8000c2 <__TEXT_REGION_LENGTH__+0x7f80c2>
 2be:	dc 01       	movw	r26, r24
 2c0:	cb 01       	movw	r24, r22
 2c2:	88 0f       	add	r24, r24
 2c4:	99 1f       	adc	r25, r25
 2c6:	aa 1f       	adc	r26, r26
 2c8:	bb 1f       	adc	r27, r27
 2ca:	88 0f       	add	r24, r24
 2cc:	99 1f       	adc	r25, r25
 2ce:	aa 1f       	adc	r26, r26
 2d0:	bb 1f       	adc	r27, r27
 2d2:	9c 01       	movw	r18, r24
 2d4:	ad 01       	movw	r20, r26
 2d6:	22 0f       	add	r18, r18
 2d8:	33 1f       	adc	r19, r19
 2da:	44 1f       	adc	r20, r20
 2dc:	55 1f       	adc	r21, r21
 2de:	22 0f       	add	r18, r18
 2e0:	33 1f       	adc	r19, r19
 2e2:	44 1f       	adc	r20, r20
 2e4:	55 1f       	adc	r21, r21
 2e6:	60 e0       	ldi	r22, 0x00	; 0
 2e8:	74 e2       	ldi	r23, 0x24	; 36
 2ea:	84 ef       	ldi	r24, 0xF4	; 244
 2ec:	90 e0       	ldi	r25, 0x00	; 0
 2ee:	96 d2       	rcall	.+1324   	; 0x81c <__udivmodsi4>
 2f0:	8f ef       	ldi	r24, 0xFF	; 255
 2f2:	82 0f       	add	r24, r18
 2f4:	80 93 c4 00 	sts	0x00C4, r24	; 0x8000c4 <__TEXT_REGION_LENGTH__+0x7f80c4>
 2f8:	da 01       	movw	r26, r20
 2fa:	c9 01       	movw	r24, r18
 2fc:	01 97       	sbiw	r24, 0x01	; 1
 2fe:	a1 09       	sbc	r26, r1
 300:	b1 09       	sbc	r27, r1
 302:	89 2f       	mov	r24, r25
 304:	9a 2f       	mov	r25, r26
 306:	ab 2f       	mov	r26, r27
 308:	bb 27       	eor	r27, r27
 30a:	80 93 c5 00 	sts	0x00C5, r24	; 0x8000c5 <__TEXT_REGION_LENGTH__+0x7f80c5>
 30e:	08 95       	ret

Disassembly of section .text.UART_TxChar:

00000f9c <UART_TxChar>:
 f9c:	90 91 c0 00 	lds	r25, 0x00C0	; 0x8000c0 <__TEXT_REGION_LENGTH__+0x7f80c0>
 fa0:	95 ff       	sbrs	r25, 5
 fa2:	fc cf       	rjmp	.-8      	; 0xf9c <UART_TxChar>
 fa4:	80 93 c6 00 	sts	0x00C6, r24	; 0x8000c6 <__TEXT_REGION_LENGTH__+0x7f80c6>
 fa8:	08 95       	ret

Disassembly of section .text.UART_RxChar:

0000037c <UART_RxChar>:
 37c:	80 91 c0 00 	lds	r24, 0x00C0	; 0x8000c0 <__TEXT_REGION_LENGTH__+0x7f80c0>
 380:	87 ff       	sbrs	r24, 7
 382:	fc cf       	rjmp	.-8      	; 0x37c <UART_RxChar>
 384:	80 91 c6 00 	lds	r24, 0x00C6	; 0x8000c6 <__TEXT_REGION_LENGTH__+0x7f80c6>
 388:	08 95       	ret

Disassembly of section .text.DIO_SetPinDirection:

00000172 <DIO_SetPinDirection>:
 172:	9f ef       	ldi	r25, 0xFF	; 255
 174:	98 0f       	add	r25, r24
 176:	93 30       	cpi	r25, 0x03	; 3
 178:	90 f4       	brcc	.+36     	; 0x19e <DIO_SetPinDirection+0x2c>
 17a:	68 30       	cpi	r22, 0x08	; 8
 17c:	80 f4       	brcc	.+32     	; 0x19e <DIO_SetPinDirection+0x2c>
 17e:	41 11       	cpse	r20, r1
 180:	0f c0       	rjmp	.+30     	; 0x1a0 <DIO_SetPinDirection+0x2e>
 182:	82 30       	cpi	r24, 0x02	; 2
 184:	91 f1       	breq	.+100    	; 0x1ea <DIO_SetPinDirection+0x78>
 186:	83 30       	cpi	r24, 0x03	; 3
 188:	d9 f4       	brne	.+54     	; 0x1c0 <DIO_SetPinDirection+0x4e>
 18a:	2a b1       	in	r18, 0x0a	; 10
 18c:	81 e0       	ldi	r24, 0x01	; 1
 18e:	90 e0       	ldi	r25, 0x00	; 0
 190:	01 c0       	rjmp	.+2      	; 0x194 <DIO_SetPinDirection+0x22>
 192:	88 0f       	add	r24, r24
 194:	6a 95       	dec	r22
 196:	ea f7       	brpl	.-6      	; 0x192 <DIO_SetPinDirection+0x20>
 198:	80 95       	com	r24
 19a:	82 23       	and	r24, r18
 19c:	8a b9       	out	0x0a, r24	; 10
 19e:	08 95       	ret
 1a0:	41 30       	cpi	r20, 0x01	; 1
 1a2:	e9 f7       	brne	.-6      	; 0x19e <DIO_SetPinDirection+0x2c>
 1a4:	82 30       	cpi	r24, 0x02	; 2
 1a6:	b9 f0       	breq	.+46     	; 0x1d6 <DIO_SetPinDirection+0x64>
 1a8:	83 30       	cpi	r24, 0x03	; 3
 1aa:	49 f5       	brne	.+82     	; 0x1fe <DIO_SetPinDirection+0x8c>
 1ac:	2a b1       	in	r18, 0x0a	; 10
 1ae:	81 e0       	ldi	r24, 0x01	; 1
 1b0:	90 e0       	ldi	r25, 0x00	; 0
 1b2:	01 c0       	rjmp	.+2      	; 0x1b6 <DIO_SetPinDirection+0x44>
 1b4:	88 0f       	add	r24, r24
 1b6:	6a 95       	dec	r22
 1b8:	ea f7       	brpl	.-6      	; 0x1b4 <DIO_SetPinDirection+0x42>
 1ba:	82 2b       	or	r24, r18
 1bc:	8a b9       	out	0x0a, r24	; 10
 1be:	ef cf       	rjmp	.-34     	; 0x19e <DIO_SetPinDirection+0x2c>
 1c0:	24 b1       	in	r18, 0x04	; 4
 1c2:	81 e0       	ldi	r24, 0x01	; 1
 1c4:	90 e0       	ldi	r25, 0x00	; 0
 1c6:	01 c0       	rjmp	.+2      	; 0x1ca <DIO_SetPinDirection+0x58>
 1c8:	88 0f       	add	r24, r24
 1ca:	6a 95       	dec	r22
 1cc:	ea f7       	brpl	.-6      	; 0x1c8 <DIO_SetPinDirection+0x56>
 1ce:	80 95       	com	r24
 1d0:	82 23       	and	r24, r18
 1d2:	84 b9       	out	0x04, r24	; 4
 1d4:	08 95       	ret
 1d6:	27 b1       	in	r18, 0x07	; 7
 1d8:	81 e0       	ldi	r24, 0x01	; 1
 1da:	90 e0       	ldi	r25, 0x00	; 0
 1dc:	01 c0       	rjmp	.+2      	; 0x1e0 <DIO_SetPinDirection+0x6e>
 1de:	88 0f       	add	r24, r24
 1e0:	6a 95       	dec	r22
 1e2:	ea f7       	brpl	.-6      	; 0x1de <DIO_SetPinDirection+0x6c>
 1e4:	82 2b       	or	r24, r18
 1e6:	87 b9       	out	0x07, r24	; 7
 1e8:	08 95       	ret
 1ea:	27 b1       	in	r18, 0x07	; 7
 1ec:	81 e0       	ldi	r24, 0x01	; 1
 1ee:	90 e0       	ldi	r25, 0x00	; 0
 1f0:	01 c0       	rjmp	.+2      	; 0x1f4 <DIO_SetPinDirection+0x82>
 1f2:	88 0f       	add	r24, r24
 1f4:	6a 95       	dec	r22
 1f6:	ea f7       	brpl	.-6      	; 0x1f2 <DIO_SetPinDirection+0x80>
 1f8:	80 95       	com	r24
 1fa:	82 23       	and	r24, r18
 1fc:	f4 cf       	rjmp	.-24     	; 0x1e6 <DIO_SetPinDirection+0x74>
 1fe:	24 b1       	in	r18, 0x04	; 4
 200:	81 e0       	ldi	r24, 0x01	; 1
 202:	90 e0       	ldi	r25, 0x00	; 0
 204:	01 c0       	rjmp	.+2      	; 0x208 <DIO_SetPinDirection+0x96>
 206:	88 0f       	add	r24, r24
 208:	6a 95       	dec	r22
 20a:	ea f7       	brpl	.-6      	; 0x206 <DIO_SetPinDirection+0x94>
 20c:	82 2b       	or	r24, r18
 20e:	e1 cf       	rjmp	.-62     	; 0x1d2 <DIO_SetPinDirection+0x60>

Disassembly of section .text.DIO_SetPinValue:

00000210 <DIO_SetPinValue>:
 210:	9f ef       	ldi	r25, 0xFF	; 255
 212:	98 0f       	add	r25, r24
 214:	93 30       	cpi	r25, 0x03	; 3
 216:	a0 f4       	brcc	.+40     	; 0x240 <DIO_SetPinValue+0x30>
 218:	68 30       	cpi	r22, 0x08	; 8
 21a:	90 f4       	brcc	.+36     	; 0x240 <DIO_SetPinValue+0x30>
 21c:	41 30       	cpi	r20, 0x01	; 1
 21e:	89 f0       	breq	.+34     	; 0x242 <DIO_SetPinValue+0x32>
 220:	41 11       	cpse	r20, r1
 222:	0e c0       	rjmp	.+28     	; 0x240 <DIO_SetPinValue+0x30>
 224:	82 30       	cpi	r24, 0x02	; 2
 226:	79 f1       	breq	.+94     	; 0x286 <DIO_SetPinValue+0x76>
 228:	83 30       	cpi	r24, 0x03	; 3
 22a:	c9 f4       	brne	.+50     	; 0x25e <DIO_SetPinValue+0x4e>
 22c:	2b b1       	in	r18, 0x0b	; 11
 22e:	81 e0       	ldi	r24, 0x01	; 1
 230:	90 e0       	ldi	r25, 0x00	; 0
 232:	01 c0       	rjmp	.+2      	; 0x236 <DIO_SetPinValue+0x26>
 234:	88 0f       	add	r24, r24
 236:	6a 95       	dec	r22
 238:	ea f7       	brpl	.-6      	; 0x234 <DIO_SetPinValue+0x24>
 23a:	80 95       	com	r24
 23c:	82 23       	and	r24, r18
 23e:	8b b9       	out	0x0b, r24	; 11
 240:	08 95       	ret
 242:	82 30       	cpi	r24, 0x02	; 2
 244:	59 f1       	breq	.+86     	; 0x29c <DIO_SetPinValue+0x8c>
 246:	83 30       	cpi	r24, 0x03	; 3
 248:	a9 f4       	brne	.+42     	; 0x274 <DIO_SetPinValue+0x64>
 24a:	2b b1       	in	r18, 0x0b	; 11
 24c:	81 e0       	ldi	r24, 0x01	; 1
 24e:	90 e0       	ldi	r25, 0x00	; 0
 250:	01 c0       	rjmp	.+2      	; 0x254 <DIO_SetPinValue+0x44>
 252:	88 0f       	add	r24, r24
 254:	6a 95       	dec	r22
 256:	ea f7       	brpl	.-6      	; 0x252 <DIO_SetPinValue+0x42>
 258:	82 2b       	or	r24, r18
 25a:	8b b9       	out	0x0b, r24	; 11
 25c:	f1 cf       	rjmp	.-30     	; 0x240 <DIO_SetPinValue+0x30>
 25e:	25 b1       	in	r18, 0x05	; 5
 260:	81 e0       	ldi	r24, 0x01	; 1
 262:	90 e0       	ldi	r25, 0x00	; 0
 264:	01 c0       	rjmp	.+2      	; 0x268 <DIO_SetPinValue+0x58>
 266:	88 0f       	add	r24, r24
 268:	6a 95       	dec	r22
 26a:	ea f7       	brpl	.-6      	; 0x266 <DIO_SetPinValue+0x56>
 26c:	80 95       	com	r24
 26e:	82 23       	and	r24, r18
 270:	85 b9       	out	0x05, r24	; 5
 272:	08 95       	ret
 274:	25 b1       	in	r18, 0x05	; 5
 276:	81 e0       	ldi	r24, 0x01	; 1
 278:	90 e0       	ldi	r25, 0x00	; 0
 27a:	01 c0       	rjmp	.+2      	; 0x27e <DIO_SetPinValue+0x6e>
 27c:	88 0f       	add	r24, r24
 27e:	6a 95       	dec	r22
 280:	ea f7       	brpl	.-6      	; 0x27c <DIO_SetPinValue+0x6c>
 282:	82 2b       	or	r24, r18
 284:	f5 cf       	rjmp	.-22     	; 0x270 <DIO_SetPinValue+0x60>
 286:	28 b1       	in	r18, 0x08	; 8
 288:	81 e0       	ldi	r24, 0x01	; 1
 28a:	90 e0       	ldi	r25, 0x00	; 0
 28c:	01 c0       	rjmp	.+2      	; 0x290 <DIO_SetPinValue+0x80>
 28e:	88 0f       	add	r24, r24
 290:	6a 95       	dec	r22
 292:	ea f7       	brpl	.-6      	; 0x28e <DIO_SetPinValue+0x7e>
 294:	80 95       	com	r24
 296:	82 23       	and	r24, r18
 298:	88 b9       	out	0x08, r24	; 8
 29a:	08 95       	ret
 29c:	28 b1       	in	r18, 0x08	; 8
 29e:	81 e0       	ldi	r24, 0x01	; 1
 2a0:	90 e0       	ldi	r25, 0x00	; 0
 2a2:	01 c0       	rjmp	.+2      	; 0x2a6 <DIO_SetPinValue+0x96>
 2a4:	88 0f       	add	r24, r24
 2a6:	6a 95       	dec	r22
 2a8:	ea f7       	brpl	.-6      	; 0x2a4 <DIO_SetPinValue+0x94>
 2aa:	82 2b       	or	r24, r18
 2ac:	f5 cf       	rjmp	.-22     	; 0x298 <DIO_SetPinValue+0x88>

Disassembly of section .text.ultarasonic_distance:

00000faa <ultarasonic_distance>:
     faa:	10 92 80 00 	sts	0x0080, r1	; 0x800080 <__TEXT_REGION_LENGTH__+0x7f8080>
     fae:	b5 9a       	sbi	0x16, 5	; 22
     fb0:	41 e0       	ldi	r20, 0x01	; 1
     fb2:	67 e0       	ldi	r22, 0x07	; 7
     fb4:	83 e0       	ldi	r24, 0x03	; 3
     fb6:	2c d9       	rcall	.-3496   	; 0x210 <DIO_SetPinValue>
     fb8:	8f ec       	ldi	r24, 0xCF	; 207
     fba:	97 e0       	ldi	r25, 0x07	; 7
     fbc:	01 97       	sbiw	r24, 0x01	; 1
     fbe:	f1 f7       	brne	.-4      	; 0xfbc <ultarasonic_distance+0x12>
     fc0:	00 c0       	rjmp	.+0      	; 0xfc2 <ultarasonic_distance+0x18>
     fc2:	00 00       	nop
     fc4:	40 e0       	ldi	r20, 0x00	; 0
     fc6:	67 e0       	ldi	r22, 0x07	; 7
     fc8:	83 e0       	ldi	r24, 0x03	; 3
     fca:	22 d9       	rcall	.-3516   	; 0x210 <DIO_SetPinValue>
     fcc:	82 ec       	ldi	r24, 0xC2	; 194
     fce:	80 93 81 00 	sts	0x0081, r24	; 0x800081 <__TEXT_REGION_LENGTH__+0x7f8081>
     fd2:	b5 9b       	sbis	0x16, 5	; 22
     fd4:	fe cf       	rjmp	.-4      	; 0xfd2 <ultarasonic_distance+0x28>
     fd6:	80 91 86 00 	lds	r24, 0x0086	; 0x800086 <__TEXT_REGION_LENGTH__+0x7f8086>
     fda:	90 91 87 00 	lds	r25, 0x0087	; 0x800087 <__TEXT_REGION_LENGTH__+0x7f8087>
     fde:	b5 9a       	sbi	0x16, 5	; 22
     fe0:	22 e8       	ldi	r18, 0x82	; 130
     fe2:	20 93 81 00 	sts	0x0081, r18	; 0x800081 <__TEXT_REGION_LENGTH__+0x7f8081>
     fe6:	b5 9b       	sbis	0x16, 5	; 22
     fe8:	fe cf       	rjmp	.-4      	; 0xfe6 <ultarasonic_distance+0x3c>
     fea:	20 91 86 00 	lds	r18, 0x0086	; 0x800086 <__TEXT_REGION_LENGTH__+0x7f8086>
     fee:	30 91 87 00 	lds	r19, 0x0087	; 0x800087 <__TEXT_REGION_LENGTH__+0x7f8087>
     ff2:	b5 9a       	sbi	0x16, 5	; 22
     ff4:	10 92 85 00 	sts	0x0085, r1	; 0x800085 <__TEXT_REGION_LENGTH__+0x7f8085>
     ff8:	10 92 84 00 	sts	0x0084, r1	; 0x800084 <__TEXT_REGION_LENGTH__+0x7f8084>
     ffc:	10 92 81 00 	sts	0x0081, r1	; 0x800081 <__TEXT_REGION_LENGTH__+0x7f8081>
    1000:	28 1b       	sub	r18, r24
    1002:	39 0b       	sbc	r19, r25
    1004:	a8 e2       	ldi	r26, 0x28	; 40
    1006:	b7 e8       	ldi	r27, 0x87	; 135
    1008:	79 d0       	rcall	.+242    	; 0x10fc <__umulhisi3>
    100a:	20 e0       	ldi	r18, 0x00	; 0
    100c:	39 e0       	ldi	r19, 0x09	; 9
    100e:	4d e3       	ldi	r20, 0x3D	; 61
    1010:	50 e0       	ldi	r21, 0x00	; 0
    1012:	04 dc       	rcall	.-2040   	; 0x81c <__udivmodsi4>
    1014:	c9 01       	movw	r24, r18
    1016:	08 95       	ret

Disassembly of section .text.avrlibc.fplib:

00001018 <__subsf3>:
    1018:	50 58       	subi	r21, 0x80	; 128

0000101a <__addsf3>:
    101a:	bb 27       	eor	r27, r27
    101c:	aa 27       	eor	r26, r26
    101e:	c5 d0       	rcall	.+394    	; 0x11aa <__addsf3x>
    1020:	45 cf       	rjmp	.-374    	; 0xeac <__fp_round>

Disassembly of section .text.avrlibc.fplib:

000011aa <__addsf3x>:
    11aa:	0d c0       	rjmp	.+26     	; 0x11c6 <__addsf3x+0x1c>
    11ac:	cb df       	rcall	.-106    	; 0x1144 <__fp_pscA>
    11ae:	30 f0       	brcs	.+12     	; 0x11bc <__addsf3x+0x12>
    11b0:	f5 df       	rcall	.-22     	; 0x119c <__fp_pscB>
    11b2:	20 f0       	brcs	.+8      	; 0x11bc <__addsf3x+0x12>
    11b4:	31 f4       	brne	.+12     	; 0x11c2 <__addsf3x+0x18>
    11b6:	9f 3f       	cpi	r25, 0xFF	; 255
    11b8:	11 f4       	brne	.+4      	; 0x11be <__addsf3x+0x14>
    11ba:	1e f4       	brtc	.+6      	; 0x11c2 <__addsf3x+0x18>
    11bc:	ca cf       	rjmp	.-108    	; 0x1152 <__fp_nan>
    11be:	0e f4       	brtc	.+2      	; 0x11c2 <__addsf3x+0x18>
    11c0:	e0 95       	com	r30
    11c2:	e7 fb       	bst	r30, 7
    11c4:	b2 cf       	rjmp	.-156    	; 0x112a <__fp_inf>
    11c6:	e9 2f       	mov	r30, r25
    11c8:	c7 df       	rcall	.-114    	; 0x1158 <__fp_split3>
    11ca:	80 f3       	brcs	.-32     	; 0x11ac <__addsf3x+0x2>
    11cc:	ba 17       	cp	r27, r26
    11ce:	62 07       	cpc	r22, r18
    11d0:	73 07       	cpc	r23, r19
    11d2:	84 07       	cpc	r24, r20
    11d4:	95 07       	cpc	r25, r21
    11d6:	18 f0       	brcs	.+6      	; 0x11de <__addsf3x+0x34>
    11d8:	71 f4       	brne	.+28     	; 0x11f6 <__addsf3x+0x4c>
    11da:	9e f5       	brtc	.+102    	; 0x1242 <__addsf3x+0x98>
    11dc:	ac cf       	rjmp	.-168    	; 0x1136 <__fp_zero>
    11de:	0e f4       	brtc	.+2      	; 0x11e2 <__addsf3x+0x38>
    11e0:	e0 95       	com	r30
    11e2:	0b 2e       	mov	r0, r27
    11e4:	ba 2f       	mov	r27, r26
    11e6:	a0 2d       	mov	r26, r0
    11e8:	0b 01       	movw	r0, r22
    11ea:	b9 01       	movw	r22, r18
    11ec:	90 01       	movw	r18, r0
    11ee:	0c 01       	movw	r0, r24
    11f0:	ca 01       	movw	r24, r20
    11f2:	a0 01       	movw	r20, r0
    11f4:	11 24       	eor	r1, r1
    11f6:	ff 27       	eor	r31, r31
    11f8:	59 1b       	sub	r21, r25
    11fa:	99 f0       	breq	.+38     	; 0x1222 <__addsf3x+0x78>
    11fc:	59 3f       	cpi	r21, 0xF9	; 249
    11fe:	50 f4       	brcc	.+20     	; 0x1214 <__addsf3x+0x6a>
    1200:	50 3e       	cpi	r21, 0xE0	; 224
    1202:	68 f1       	brcs	.+90     	; 0x125e <__addsf3x+0xb4>
    1204:	1a 16       	cp	r1, r26
    1206:	f0 40       	sbci	r31, 0x00	; 0
    1208:	a2 2f       	mov	r26, r18
    120a:	23 2f       	mov	r18, r19
    120c:	34 2f       	mov	r19, r20
    120e:	44 27       	eor	r20, r20
    1210:	58 5f       	subi	r21, 0xF8	; 248
    1212:	f3 cf       	rjmp	.-26     	; 0x11fa <__addsf3x+0x50>
    1214:	46 95       	lsr	r20
    1216:	37 95       	ror	r19
    1218:	27 95       	ror	r18
    121a:	a7 95       	ror	r26
    121c:	f0 40       	sbci	r31, 0x00	; 0
    121e:	53 95       	inc	r21
    1220:	c9 f7       	brne	.-14     	; 0x1214 <__addsf3x+0x6a>
    1222:	7e f4       	brtc	.+30     	; 0x1242 <__addsf3x+0x98>
    1224:	1f 16       	cp	r1, r31
    1226:	ba 0b       	sbc	r27, r26
    1228:	62 0b       	sbc	r22, r18
    122a:	73 0b       	sbc	r23, r19
    122c:	84 0b       	sbc	r24, r20
    122e:	ba f0       	brmi	.+46     	; 0x125e <__addsf3x+0xb4>
    1230:	91 50       	subi	r25, 0x01	; 1
    1232:	a1 f0       	breq	.+40     	; 0x125c <__addsf3x+0xb2>
    1234:	ff 0f       	add	r31, r31
    1236:	bb 1f       	adc	r27, r27
    1238:	66 1f       	adc	r22, r22
    123a:	77 1f       	adc	r23, r23
    123c:	88 1f       	adc	r24, r24
    123e:	c2 f7       	brpl	.-16     	; 0x1230 <__addsf3x+0x86>
    1240:	0e c0       	rjmp	.+28     	; 0x125e <__addsf3x+0xb4>
    1242:	ba 0f       	add	r27, r26
    1244:	62 1f       	adc	r22, r18
    1246:	73 1f       	adc	r23, r19
    1248:	84 1f       	adc	r24, r20
    124a:	48 f4       	brcc	.+18     	; 0x125e <__addsf3x+0xb4>
    124c:	87 95       	ror	r24
    124e:	77 95       	ror	r23
    1250:	67 95       	ror	r22
    1252:	b7 95       	ror	r27
    1254:	f7 95       	ror	r31
    1256:	9e 3f       	cpi	r25, 0xFE	; 254
    1258:	08 f0       	brcs	.+2      	; 0x125c <__addsf3x+0xb2>
    125a:	b3 cf       	rjmp	.-154    	; 0x11c2 <__addsf3x+0x18>
    125c:	93 95       	inc	r25
    125e:	88 0f       	add	r24, r24
    1260:	08 f0       	brcs	.+2      	; 0x1264 <__addsf3x+0xba>
    1262:	99 27       	eor	r25, r25
    1264:	ee 0f       	add	r30, r30
    1266:	97 95       	ror	r25
    1268:	87 95       	ror	r24
    126a:	08 95       	ret

Disassembly of section .text.avrlibc.fplib:

00000aa4 <__divsf3>:
 aa4:	14 d2       	rcall	.+1064   	; 0xece <__divsf3x>
 aa6:	02 c2       	rjmp	.+1028   	; 0xeac <__fp_round>

Disassembly of section .text.avrlibc.fplib:

00000ece <__divsf3x>:
 ece:	0b c0       	rjmp	.+22     	; 0xee6 <__divsf3x+0x18>
 ed0:	65 d1       	rcall	.+714    	; 0x119c <__fp_pscB>
 ed2:	40 f0       	brcs	.+16     	; 0xee4 <__divsf3x+0x16>
 ed4:	37 d1       	rcall	.+622    	; 0x1144 <__fp_pscA>
 ed6:	30 f0       	brcs	.+12     	; 0xee4 <__divsf3x+0x16>
 ed8:	21 f4       	brne	.+8      	; 0xee2 <__divsf3x+0x14>
 eda:	5f 3f       	cpi	r21, 0xFF	; 255
 edc:	19 f0       	breq	.+6      	; 0xee4 <__divsf3x+0x16>
 ede:	25 c1       	rjmp	.+586    	; 0x112a <__fp_inf>
 ee0:	51 11       	cpse	r21, r1
 ee2:	2a c1       	rjmp	.+596    	; 0x1138 <__fp_szero>
 ee4:	36 c1       	rjmp	.+620    	; 0x1152 <__fp_nan>
 ee6:	38 d1       	rcall	.+624    	; 0x1158 <__fp_split3>
 ee8:	98 f3       	brcs	.-26     	; 0xed0 <__divsf3x+0x2>

00000eea <__divsf3_pse>:
 eea:	99 23       	and	r25, r25
 eec:	c9 f3       	breq	.-14     	; 0xee0 <__divsf3x+0x12>
 eee:	55 23       	and	r21, r21
 ef0:	b1 f3       	breq	.-20     	; 0xede <__divsf3x+0x10>
 ef2:	95 1b       	sub	r25, r21
 ef4:	55 0b       	sbc	r21, r21
 ef6:	bb 27       	eor	r27, r27
 ef8:	aa 27       	eor	r26, r26
 efa:	62 17       	cp	r22, r18
 efc:	73 07       	cpc	r23, r19
 efe:	84 07       	cpc	r24, r20
 f00:	38 f0       	brcs	.+14     	; 0xf10 <__divsf3_pse+0x26>
 f02:	9f 5f       	subi	r25, 0xFF	; 255
 f04:	5f 4f       	sbci	r21, 0xFF	; 255
 f06:	22 0f       	add	r18, r18
 f08:	33 1f       	adc	r19, r19
 f0a:	44 1f       	adc	r20, r20
 f0c:	aa 1f       	adc	r26, r26
 f0e:	a9 f3       	breq	.-22     	; 0xefa <__divsf3_pse+0x10>
 f10:	33 d0       	rcall	.+102    	; 0xf78 <__divsf3_pse+0x8e>
 f12:	0e 2e       	mov	r0, r30
 f14:	3a f0       	brmi	.+14     	; 0xf24 <__divsf3_pse+0x3a>
 f16:	e0 e8       	ldi	r30, 0x80	; 128
 f18:	30 d0       	rcall	.+96     	; 0xf7a <__divsf3_pse+0x90>
 f1a:	91 50       	subi	r25, 0x01	; 1
 f1c:	50 40       	sbci	r21, 0x00	; 0
 f1e:	e6 95       	lsr	r30
 f20:	00 1c       	adc	r0, r0
 f22:	ca f7       	brpl	.-14     	; 0xf16 <__divsf3_pse+0x2c>
 f24:	29 d0       	rcall	.+82     	; 0xf78 <__divsf3_pse+0x8e>
 f26:	fe 2f       	mov	r31, r30
 f28:	27 d0       	rcall	.+78     	; 0xf78 <__divsf3_pse+0x8e>
 f2a:	66 0f       	add	r22, r22
 f2c:	77 1f       	adc	r23, r23
 f2e:	88 1f       	adc	r24, r24
 f30:	bb 1f       	adc	r27, r27
 f32:	26 17       	cp	r18, r22
 f34:	37 07       	cpc	r19, r23
 f36:	48 07       	cpc	r20, r24
 f38:	ab 07       	cpc	r26, r27
 f3a:	b0 e8       	ldi	r27, 0x80	; 128
 f3c:	09 f0       	breq	.+2      	; 0xf40 <__divsf3_pse+0x56>
 f3e:	bb 0b       	sbc	r27, r27
 f40:	80 2d       	mov	r24, r0
 f42:	bf 01       	movw	r22, r30
 f44:	ff 27       	eor	r31, r31
 f46:	93 58       	subi	r25, 0x83	; 131
 f48:	5f 4f       	sbci	r21, 0xFF	; 255
 f4a:	2a f0       	brmi	.+10     	; 0xf56 <__divsf3_pse+0x6c>
 f4c:	9e 3f       	cpi	r25, 0xFE	; 254
 f4e:	51 05       	cpc	r21, r1
 f50:	68 f0       	brcs	.+26     	; 0xf6c <__divsf3_pse+0x82>
 f52:	eb c0       	rjmp	.+470    	; 0x112a <__fp_inf>
 f54:	f1 c0       	rjmp	.+482    	; 0x1138 <__fp_szero>
 f56:	5f 3f       	cpi	r21, 0xFF	; 255
 f58:	ec f3       	brlt	.-6      	; 0xf54 <__divsf3_pse+0x6a>
 f5a:	98 3e       	cpi	r25, 0xE8	; 232
 f5c:	dc f3       	brlt	.-10     	; 0xf54 <__divsf3_pse+0x6a>
 f5e:	86 95       	lsr	r24
 f60:	77 95       	ror	r23
 f62:	67 95       	ror	r22
 f64:	b7 95       	ror	r27
 f66:	f7 95       	ror	r31
 f68:	9f 5f       	subi	r25, 0xFF	; 255
 f6a:	c9 f7       	brne	.-14     	; 0xf5e <__divsf3_pse+0x74>
 f6c:	88 0f       	add	r24, r24
 f6e:	91 1d       	adc	r25, r1
 f70:	96 95       	lsr	r25
 f72:	87 95       	ror	r24
 f74:	97 f9       	bld	r25, 7
 f76:	08 95       	ret
 f78:	e1 e0       	ldi	r30, 0x01	; 1
 f7a:	66 0f       	add	r22, r22
 f7c:	77 1f       	adc	r23, r23
 f7e:	88 1f       	adc	r24, r24
 f80:	bb 1f       	adc	r27, r27
 f82:	62 17       	cp	r22, r18
 f84:	73 07       	cpc	r23, r19
 f86:	84 07       	cpc	r24, r20
 f88:	ba 07       	cpc	r27, r26
 f8a:	20 f0       	brcs	.+8      	; 0xf94 <__divsf3_pse+0xaa>
 f8c:	62 1b       	sub	r22, r18
 f8e:	73 0b       	sbc	r23, r19
 f90:	84 0b       	sbc	r24, r20
 f92:	ba 0b       	sbc	r27, r26
 f94:	ee 1f       	adc	r30, r30
 f96:	88 f7       	brcc	.-30     	; 0xf7a <__divsf3_pse+0x90>
 f98:	e0 95       	com	r30
 f9a:	08 95       	ret

Disassembly of section .text.avrlibc.fplib:

00000a2a <__floatunsisf>:
 a2a:	e8 94       	clt
 a2c:	09 c0       	rjmp	.+18     	; 0xa40 <__floatsisf+0x12>

00000a2e <__floatsisf>:
 a2e:	97 fb       	bst	r25, 7
 a30:	3e f4       	brtc	.+14     	; 0xa40 <__floatsisf+0x12>
 a32:	90 95       	com	r25
 a34:	80 95       	com	r24
 a36:	70 95       	com	r23
 a38:	61 95       	neg	r22
 a3a:	7f 4f       	sbci	r23, 0xFF	; 255
 a3c:	8f 4f       	sbci	r24, 0xFF	; 255
 a3e:	9f 4f       	sbci	r25, 0xFF	; 255
 a40:	99 23       	and	r25, r25
 a42:	a9 f0       	breq	.+42     	; 0xa6e <__floatsisf+0x40>
 a44:	f9 2f       	mov	r31, r25
 a46:	96 e9       	ldi	r25, 0x96	; 150
 a48:	bb 27       	eor	r27, r27
 a4a:	93 95       	inc	r25
 a4c:	f6 95       	lsr	r31
 a4e:	87 95       	ror	r24
 a50:	77 95       	ror	r23
 a52:	67 95       	ror	r22
 a54:	b7 95       	ror	r27
 a56:	f1 11       	cpse	r31, r1
 a58:	f8 cf       	rjmp	.-16     	; 0xa4a <__floatsisf+0x1c>
 a5a:	fa f4       	brpl	.+62     	; 0xa9a <__floatsisf+0x6c>
 a5c:	bb 0f       	add	r27, r27
 a5e:	11 f4       	brne	.+4      	; 0xa64 <__floatsisf+0x36>
 a60:	60 ff       	sbrs	r22, 0
 a62:	1b c0       	rjmp	.+54     	; 0xa9a <__floatsisf+0x6c>
 a64:	6f 5f       	subi	r22, 0xFF	; 255
 a66:	7f 4f       	sbci	r23, 0xFF	; 255
 a68:	8f 4f       	sbci	r24, 0xFF	; 255
 a6a:	9f 4f       	sbci	r25, 0xFF	; 255
 a6c:	16 c0       	rjmp	.+44     	; 0xa9a <__floatsisf+0x6c>
 a6e:	88 23       	and	r24, r24
 a70:	11 f0       	breq	.+4      	; 0xa76 <__floatsisf+0x48>
 a72:	96 e9       	ldi	r25, 0x96	; 150
 a74:	11 c0       	rjmp	.+34     	; 0xa98 <__floatsisf+0x6a>
 a76:	77 23       	and	r23, r23
 a78:	21 f0       	breq	.+8      	; 0xa82 <__floatsisf+0x54>
 a7a:	9e e8       	ldi	r25, 0x8E	; 142
 a7c:	87 2f       	mov	r24, r23
 a7e:	76 2f       	mov	r23, r22
 a80:	05 c0       	rjmp	.+10     	; 0xa8c <__floatsisf+0x5e>
 a82:	66 23       	and	r22, r22
 a84:	71 f0       	breq	.+28     	; 0xaa2 <__floatsisf+0x74>
 a86:	96 e8       	ldi	r25, 0x86	; 134
 a88:	86 2f       	mov	r24, r22
 a8a:	70 e0       	ldi	r23, 0x00	; 0
 a8c:	60 e0       	ldi	r22, 0x00	; 0
 a8e:	2a f0       	brmi	.+10     	; 0xa9a <__floatsisf+0x6c>
 a90:	9a 95       	dec	r25
 a92:	66 0f       	add	r22, r22
 a94:	77 1f       	adc	r23, r23
 a96:	88 1f       	adc	r24, r24
 a98:	da f7       	brpl	.-10     	; 0xa90 <__floatsisf+0x62>
 a9a:	88 0f       	add	r24, r24
 a9c:	96 95       	lsr	r25
 a9e:	87 95       	ror	r24
 aa0:	97 f9       	bld	r25, 7
 aa2:	08 95       	ret

Disassembly of section .text.avrlibc.fplib:

0000112a <__fp_inf>:
    112a:	97 f9       	bld	r25, 7
    112c:	9f 67       	ori	r25, 0x7F	; 127
    112e:	80 e8       	ldi	r24, 0x80	; 128
    1130:	70 e0       	ldi	r23, 0x00	; 0
    1132:	60 e0       	ldi	r22, 0x00	; 0
    1134:	08 95       	ret

Disassembly of section .text.avrlibc.fplib:

00001152 <__fp_nan>:
    1152:	9f ef       	ldi	r25, 0xFF	; 255
    1154:	80 ec       	ldi	r24, 0xC0	; 192
    1156:	08 95       	ret

Disassembly of section .text.avrlibc.fplib:

00001144 <__fp_pscA>:
    1144:	00 24       	eor	r0, r0
    1146:	0a 94       	dec	r0
    1148:	16 16       	cp	r1, r22
    114a:	17 06       	cpc	r1, r23
    114c:	18 06       	cpc	r1, r24
    114e:	09 06       	cpc	r0, r25
    1150:	08 95       	ret

Disassembly of section .text.avrlibc.fplib:

0000119c <__fp_pscB>:
    119c:	00 24       	eor	r0, r0
    119e:	0a 94       	dec	r0
    11a0:	12 16       	cp	r1, r18
    11a2:	13 06       	cpc	r1, r19
    11a4:	14 06       	cpc	r1, r20
    11a6:	05 06       	cpc	r0, r21
    11a8:	08 95       	ret

Disassembly of section .text.avrlibc.fplib:

00000eac <__fp_round>:
 eac:	09 2e       	mov	r0, r25
 eae:	03 94       	inc	r0
 eb0:	00 0c       	add	r0, r0
 eb2:	11 f4       	brne	.+4      	; 0xeb8 <__fp_round+0xc>
 eb4:	88 23       	and	r24, r24
 eb6:	52 f0       	brmi	.+20     	; 0xecc <__fp_round+0x20>
 eb8:	bb 0f       	add	r27, r27
 eba:	40 f4       	brcc	.+16     	; 0xecc <__fp_round+0x20>
 ebc:	bf 2b       	or	r27, r31
 ebe:	11 f4       	brne	.+4      	; 0xec4 <__fp_round+0x18>
 ec0:	60 ff       	sbrs	r22, 0
 ec2:	04 c0       	rjmp	.+8      	; 0xecc <__fp_round+0x20>
 ec4:	6f 5f       	subi	r22, 0xFF	; 255
 ec6:	7f 4f       	sbci	r23, 0xFF	; 255
 ec8:	8f 4f       	sbci	r24, 0xFF	; 255
 eca:	9f 4f       	sbci	r25, 0xFF	; 255
 ecc:	08 95       	ret

Disassembly of section .text.avrlibc.fplib:

00001158 <__fp_split3>:
    1158:	57 fd       	sbrc	r21, 7
    115a:	90 58       	subi	r25, 0x80	; 128
    115c:	44 0f       	add	r20, r20
    115e:	55 1f       	adc	r21, r21
    1160:	59 f0       	breq	.+22     	; 0x1178 <__fp_splitA+0x10>
    1162:	5f 3f       	cpi	r21, 0xFF	; 255
    1164:	71 f0       	breq	.+28     	; 0x1182 <__fp_splitA+0x1a>
    1166:	47 95       	ror	r20

00001168 <__fp_splitA>:
    1168:	88 0f       	add	r24, r24
    116a:	97 fb       	bst	r25, 7
    116c:	99 1f       	adc	r25, r25
    116e:	61 f0       	breq	.+24     	; 0x1188 <__fp_splitA+0x20>
    1170:	9f 3f       	cpi	r25, 0xFF	; 255
    1172:	79 f0       	breq	.+30     	; 0x1192 <__fp_splitA+0x2a>
    1174:	87 95       	ror	r24
    1176:	08 95       	ret
    1178:	12 16       	cp	r1, r18
    117a:	13 06       	cpc	r1, r19
    117c:	14 06       	cpc	r1, r20
    117e:	55 1f       	adc	r21, r21
    1180:	f2 cf       	rjmp	.-28     	; 0x1166 <__fp_split3+0xe>
    1182:	46 95       	lsr	r20
    1184:	f1 df       	rcall	.-30     	; 0x1168 <__fp_splitA>
    1186:	08 c0       	rjmp	.+16     	; 0x1198 <__fp_splitA+0x30>
    1188:	16 16       	cp	r1, r22
    118a:	17 06       	cpc	r1, r23
    118c:	18 06       	cpc	r1, r24
    118e:	99 1f       	adc	r25, r25
    1190:	f1 cf       	rjmp	.-30     	; 0x1174 <__fp_splitA+0xc>
    1192:	86 95       	lsr	r24
    1194:	71 05       	cpc	r23, r1
    1196:	61 05       	cpc	r22, r1
    1198:	08 94       	sec
    119a:	08 95       	ret

Disassembly of section .text.avrlibc.fplib:

00001136 <__fp_zero>:
    1136:	e8 94       	clt

00001138 <__fp_szero>:
    1138:	bb 27       	eor	r27, r27
    113a:	66 27       	eor	r22, r22
    113c:	77 27       	eor	r23, r23
    113e:	cb 01       	movw	r24, r22
    1140:	97 f9       	bld	r25, 7
    1142:	08 95       	ret

Disassembly of section .text.avrlibc.fplib:

000009fc <__gesf2>:
 9fc:	1f d2       	rcall	.+1086   	; 0xe3c <__fp_cmp>
 9fe:	08 f4       	brcc	.+2      	; 0xa02 <__gesf2+0x6>
 a00:	8f ef       	ldi	r24, 0xFF	; 255
 a02:	08 95       	ret

Disassembly of section .text.avrlibc.fplib:

00000ce2 <__mulsf3>:
 ce2:	9f d1       	rcall	.+830    	; 0x1022 <__mulsf3x>
 ce4:	e3 c0       	rjmp	.+454    	; 0xeac <__fp_round>

Disassembly of section .text.avrlibc.fplib:

00001022 <__mulsf3x>:
    1022:	0a c0       	rjmp	.+20     	; 0x1038 <__mulsf3x+0x16>
    1024:	8f d0       	rcall	.+286    	; 0x1144 <__fp_pscA>
    1026:	28 f0       	brcs	.+10     	; 0x1032 <__mulsf3x+0x10>
    1028:	b9 d0       	rcall	.+370    	; 0x119c <__fp_pscB>
    102a:	18 f0       	brcs	.+6      	; 0x1032 <__mulsf3x+0x10>
    102c:	95 23       	and	r25, r21
    102e:	09 f0       	breq	.+2      	; 0x1032 <__mulsf3x+0x10>
    1030:	7c c0       	rjmp	.+248    	; 0x112a <__fp_inf>
    1032:	8f c0       	rjmp	.+286    	; 0x1152 <__fp_nan>
    1034:	11 24       	eor	r1, r1
    1036:	80 c0       	rjmp	.+256    	; 0x1138 <__fp_szero>
    1038:	8f d0       	rcall	.+286    	; 0x1158 <__fp_split3>
    103a:	a0 f3       	brcs	.-24     	; 0x1024 <__mulsf3x+0x2>

0000103c <__mulsf3_pse>:
    103c:	95 9f       	mul	r25, r21
    103e:	d1 f3       	breq	.-12     	; 0x1034 <__mulsf3x+0x12>
    1040:	95 0f       	add	r25, r21
    1042:	50 e0       	ldi	r21, 0x00	; 0
    1044:	55 1f       	adc	r21, r21
    1046:	62 9f       	mul	r22, r18
    1048:	f0 01       	movw	r30, r0
    104a:	72 9f       	mul	r23, r18
    104c:	bb 27       	eor	r27, r27
    104e:	f0 0d       	add	r31, r0
    1050:	b1 1d       	adc	r27, r1
    1052:	63 9f       	mul	r22, r19
    1054:	aa 27       	eor	r26, r26
    1056:	f0 0d       	add	r31, r0
    1058:	b1 1d       	adc	r27, r1
    105a:	aa 1f       	adc	r26, r26
    105c:	64 9f       	mul	r22, r20
    105e:	66 27       	eor	r22, r22
    1060:	b0 0d       	add	r27, r0
    1062:	a1 1d       	adc	r26, r1
    1064:	66 1f       	adc	r22, r22
    1066:	82 9f       	mul	r24, r18
    1068:	22 27       	eor	r18, r18
    106a:	b0 0d       	add	r27, r0
    106c:	a1 1d       	adc	r26, r1
    106e:	62 1f       	adc	r22, r18
    1070:	73 9f       	mul	r23, r19
    1072:	b0 0d       	add	r27, r0
    1074:	a1 1d       	adc	r26, r1
    1076:	62 1f       	adc	r22, r18
    1078:	83 9f       	mul	r24, r19
    107a:	a0 0d       	add	r26, r0
    107c:	61 1d       	adc	r22, r1
    107e:	22 1f       	adc	r18, r18
    1080:	74 9f       	mul	r23, r20
    1082:	33 27       	eor	r19, r19
    1084:	a0 0d       	add	r26, r0
    1086:	61 1d       	adc	r22, r1
    1088:	23 1f       	adc	r18, r19
    108a:	84 9f       	mul	r24, r20
    108c:	60 0d       	add	r22, r0
    108e:	21 1d       	adc	r18, r1
    1090:	82 2f       	mov	r24, r18
    1092:	76 2f       	mov	r23, r22
    1094:	6a 2f       	mov	r22, r26
    1096:	11 24       	eor	r1, r1
    1098:	9f 57       	subi	r25, 0x7F	; 127
    109a:	50 40       	sbci	r21, 0x00	; 0
    109c:	8a f0       	brmi	.+34     	; 0x10c0 <__mulsf3_pse+0x84>
    109e:	e1 f0       	breq	.+56     	; 0x10d8 <__mulsf3_pse+0x9c>
    10a0:	88 23       	and	r24, r24
    10a2:	4a f0       	brmi	.+18     	; 0x10b6 <__mulsf3_pse+0x7a>
    10a4:	ee 0f       	add	r30, r30
    10a6:	ff 1f       	adc	r31, r31
    10a8:	bb 1f       	adc	r27, r27
    10aa:	66 1f       	adc	r22, r22
    10ac:	77 1f       	adc	r23, r23
    10ae:	88 1f       	adc	r24, r24
    10b0:	91 50       	subi	r25, 0x01	; 1
    10b2:	50 40       	sbci	r21, 0x00	; 0
    10b4:	a9 f7       	brne	.-22     	; 0x10a0 <__mulsf3_pse+0x64>
    10b6:	9e 3f       	cpi	r25, 0xFE	; 254
    10b8:	51 05       	cpc	r21, r1
    10ba:	70 f0       	brcs	.+28     	; 0x10d8 <__mulsf3_pse+0x9c>
    10bc:	36 c0       	rjmp	.+108    	; 0x112a <__fp_inf>
    10be:	3c c0       	rjmp	.+120    	; 0x1138 <__fp_szero>
    10c0:	5f 3f       	cpi	r21, 0xFF	; 255
    10c2:	ec f3       	brlt	.-6      	; 0x10be <__mulsf3_pse+0x82>
    10c4:	98 3e       	cpi	r25, 0xE8	; 232
    10c6:	dc f3       	brlt	.-10     	; 0x10be <__mulsf3_pse+0x82>
    10c8:	86 95       	lsr	r24
    10ca:	77 95       	ror	r23
    10cc:	67 95       	ror	r22
    10ce:	b7 95       	ror	r27
    10d0:	f7 95       	ror	r31
    10d2:	e7 95       	ror	r30
    10d4:	9f 5f       	subi	r25, 0xFF	; 255
    10d6:	c1 f7       	brne	.-16     	; 0x10c8 <__mulsf3_pse+0x8c>
    10d8:	fe 2b       	or	r31, r30
    10da:	88 0f       	add	r24, r24
    10dc:	91 1d       	adc	r25, r1
    10de:	96 95       	lsr	r25
    10e0:	87 95       	ror	r24
    10e2:	97 f9       	bld	r25, 7
    10e4:	08 95       	ret

Disassembly of section .text.avrlibc.fplib:

00000e3c <__fp_cmp>:
 e3c:	99 0f       	add	r25, r25
 e3e:	00 08       	sbc	r0, r0
 e40:	55 0f       	add	r21, r21
 e42:	aa 0b       	sbc	r26, r26
 e44:	e0 e8       	ldi	r30, 0x80	; 128
 e46:	fe ef       	ldi	r31, 0xFE	; 254
 e48:	16 16       	cp	r1, r22
 e4a:	17 06       	cpc	r1, r23
 e4c:	e8 07       	cpc	r30, r24
 e4e:	f9 07       	cpc	r31, r25
 e50:	c0 f0       	brcs	.+48     	; 0xe82 <__fp_cmp+0x46>
 e52:	12 16       	cp	r1, r18
 e54:	13 06       	cpc	r1, r19
 e56:	e4 07       	cpc	r30, r20
 e58:	f5 07       	cpc	r31, r21
 e5a:	98 f0       	brcs	.+38     	; 0xe82 <__fp_cmp+0x46>
 e5c:	62 1b       	sub	r22, r18
 e5e:	73 0b       	sbc	r23, r19
 e60:	84 0b       	sbc	r24, r20
 e62:	95 0b       	sbc	r25, r21
 e64:	39 f4       	brne	.+14     	; 0xe74 <__fp_cmp+0x38>
 e66:	0a 26       	eor	r0, r26
 e68:	61 f0       	breq	.+24     	; 0xe82 <__fp_cmp+0x46>
 e6a:	23 2b       	or	r18, r19
 e6c:	24 2b       	or	r18, r20
 e6e:	25 2b       	or	r18, r21
 e70:	21 f4       	brne	.+8      	; 0xe7a <__fp_cmp+0x3e>
 e72:	08 95       	ret
 e74:	0a 26       	eor	r0, r26
 e76:	09 f4       	brne	.+2      	; 0xe7a <__fp_cmp+0x3e>
 e78:	a1 40       	sbci	r26, 0x01	; 1
 e7a:	a6 95       	lsr	r26
 e7c:	8f ef       	ldi	r24, 0xFF	; 255
 e7e:	81 1d       	adc	r24, r1
 e80:	81 1d       	adc	r24, r1
 e82:	08 95       	ret

Disassembly of section .text.libgcc.div:

00000a04 <__divmodhi4>:
 a04:	97 fb       	bst	r25, 7
 a06:	07 2e       	mov	r0, r23
 a08:	16 f4       	brtc	.+4      	; 0xa0e <__divmodhi4+0xa>
 a0a:	00 94       	com	r0
 a0c:	06 d0       	rcall	.+12     	; 0xa1a <__divmodhi4_neg1>
 a0e:	77 fd       	sbrc	r23, 7
 a10:	08 d0       	rcall	.+16     	; 0xa22 <__divmodhi4_neg2>
 a12:	38 d2       	rcall	.+1136   	; 0xe84 <__udivmodhi4>
 a14:	07 fc       	sbrc	r0, 7
 a16:	05 d0       	rcall	.+10     	; 0xa22 <__divmodhi4_neg2>
 a18:	3e f4       	brtc	.+14     	; 0xa28 <__divmodhi4_exit>

00000a1a <__divmodhi4_neg1>:
 a1a:	90 95       	com	r25
 a1c:	81 95       	neg	r24
 a1e:	9f 4f       	sbci	r25, 0xFF	; 255
 a20:	08 95       	ret

00000a22 <__divmodhi4_neg2>:
 a22:	70 95       	com	r23
 a24:	61 95       	neg	r22
 a26:	7f 4f       	sbci	r23, 0xFF	; 255

00000a28 <__divmodhi4_exit>:
 a28:	08 95       	ret

Disassembly of section .text.libgcc.div:

0000081c <__udivmodsi4>:
 81c:	a1 e2       	ldi	r26, 0x21	; 33
 81e:	1a 2e       	mov	r1, r26
 820:	aa 1b       	sub	r26, r26
 822:	bb 1b       	sub	r27, r27
 824:	fd 01       	movw	r30, r26
 826:	0d c0       	rjmp	.+26     	; 0x842 <__udivmodsi4_ep>

00000828 <__udivmodsi4_loop>:
 828:	aa 1f       	adc	r26, r26
 82a:	bb 1f       	adc	r27, r27
 82c:	ee 1f       	adc	r30, r30
 82e:	ff 1f       	adc	r31, r31
 830:	a2 17       	cp	r26, r18
 832:	b3 07       	cpc	r27, r19
 834:	e4 07       	cpc	r30, r20
 836:	f5 07       	cpc	r31, r21
 838:	20 f0       	brcs	.+8      	; 0x842 <__udivmodsi4_ep>
 83a:	a2 1b       	sub	r26, r18
 83c:	b3 0b       	sbc	r27, r19
 83e:	e4 0b       	sbc	r30, r20
 840:	f5 0b       	sbc	r31, r21

00000842 <__udivmodsi4_ep>:
 842:	66 1f       	adc	r22, r22
 844:	77 1f       	adc	r23, r23
 846:	88 1f       	adc	r24, r24
 848:	99 1f       	adc	r25, r25
 84a:	1a 94       	dec	r1
 84c:	69 f7       	brne	.-38     	; 0x828 <__udivmodsi4_loop>
 84e:	60 95       	com	r22
 850:	70 95       	com	r23
 852:	80 95       	com	r24
 854:	90 95       	com	r25
 856:	9b 01       	movw	r18, r22
 858:	ac 01       	movw	r20, r24
 85a:	bd 01       	movw	r22, r26
 85c:	cf 01       	movw	r24, r30
 85e:	08 95       	ret

Disassembly of section .text.libgcc.mul:

000010fc <__umulhisi3>:
    10fc:	a2 9f       	mul	r26, r18
    10fe:	b0 01       	movw	r22, r0
    1100:	b3 9f       	mul	r27, r19
    1102:	c0 01       	movw	r24, r0
    1104:	a3 9f       	mul	r26, r19
    1106:	70 0d       	add	r23, r0
    1108:	81 1d       	adc	r24, r1
    110a:	11 24       	eor	r1, r1
    110c:	91 1d       	adc	r25, r1
    110e:	b2 9f       	mul	r27, r18
    1110:	70 0d       	add	r23, r0
    1112:	81 1d       	adc	r24, r1
    1114:	11 24       	eor	r1, r1
    1116:	91 1d       	adc	r25, r1
    1118:	08 95       	ret

Disassembly of section .text.libgcc.div:

00000e84 <__udivmodhi4>:
 e84:	aa 1b       	sub	r26, r26
 e86:	bb 1b       	sub	r27, r27
 e88:	51 e1       	ldi	r21, 0x11	; 17
 e8a:	07 c0       	rjmp	.+14     	; 0xe9a <__udivmodhi4_ep>

00000e8c <__udivmodhi4_loop>:
 e8c:	aa 1f       	adc	r26, r26
 e8e:	bb 1f       	adc	r27, r27
 e90:	a6 17       	cp	r26, r22
 e92:	b7 07       	cpc	r27, r23
 e94:	10 f0       	brcs	.+4      	; 0xe9a <__udivmodhi4_ep>
 e96:	a6 1b       	sub	r26, r22
 e98:	b7 0b       	sbc	r27, r23

00000e9a <__udivmodhi4_ep>:
 e9a:	88 1f       	adc	r24, r24
 e9c:	99 1f       	adc	r25, r25
 e9e:	5a 95       	dec	r21
 ea0:	a9 f7       	brne	.-22     	; 0xe8c <__udivmodhi4_loop>
 ea2:	80 95       	com	r24
 ea4:	90 95       	com	r25
 ea6:	bc 01       	movw	r22, r24
 ea8:	cd 01       	movw	r24, r26
 eaa:	08 95       	ret

Disassembly of section .text.avrlibc:

00000956 <do_rand>:
 956:	8f 92       	push	r8
 958:	9f 92       	push	r9
 95a:	af 92       	push	r10
 95c:	bf 92       	push	r11
 95e:	cf 92       	push	r12
 960:	df 92       	push	r13
 962:	ef 92       	push	r14
 964:	ff 92       	push	r15
 966:	cf 93       	push	r28
 968:	df 93       	push	r29
 96a:	ec 01       	movw	r28, r24
 96c:	68 81       	ld	r22, Y
 96e:	79 81       	ldd	r23, Y+1	; 0x01
 970:	8a 81       	ldd	r24, Y+2	; 0x02
 972:	9b 81       	ldd	r25, Y+3	; 0x03
 974:	61 15       	cp	r22, r1
 976:	71 05       	cpc	r23, r1
 978:	81 05       	cpc	r24, r1
 97a:	91 05       	cpc	r25, r1
 97c:	21 f4       	brne	.+8      	; 0x986 <do_rand+0x30>
 97e:	64 e2       	ldi	r22, 0x24	; 36
 980:	79 ed       	ldi	r23, 0xD9	; 217
 982:	8b e5       	ldi	r24, 0x5B	; 91
 984:	97 e0       	ldi	r25, 0x07	; 7
 986:	2d e1       	ldi	r18, 0x1D	; 29
 988:	33 ef       	ldi	r19, 0xF3	; 243
 98a:	41 e0       	ldi	r20, 0x01	; 1
 98c:	50 e0       	ldi	r21, 0x00	; 0
 98e:	42 d2       	rcall	.+1156   	; 0xe14 <__divmodsi4>
 990:	49 01       	movw	r8, r18
 992:	5a 01       	movw	r10, r20
 994:	9b 01       	movw	r18, r22
 996:	ac 01       	movw	r20, r24
 998:	a7 ea       	ldi	r26, 0xA7	; 167
 99a:	b1 e4       	ldi	r27, 0x41	; 65
 99c:	2b d2       	rcall	.+1110   	; 0xdf4 <__muluhisi3>
 99e:	6b 01       	movw	r12, r22
 9a0:	7c 01       	movw	r14, r24
 9a2:	ac ee       	ldi	r26, 0xEC	; 236
 9a4:	b4 ef       	ldi	r27, 0xF4	; 244
 9a6:	a5 01       	movw	r20, r10
 9a8:	94 01       	movw	r18, r8
 9aa:	30 d2       	rcall	.+1120   	; 0xe0c <__mulohisi3>
 9ac:	dc 01       	movw	r26, r24
 9ae:	cb 01       	movw	r24, r22
 9b0:	8c 0d       	add	r24, r12
 9b2:	9d 1d       	adc	r25, r13
 9b4:	ae 1d       	adc	r26, r14
 9b6:	bf 1d       	adc	r27, r15
 9b8:	b7 ff       	sbrs	r27, 7
 9ba:	03 c0       	rjmp	.+6      	; 0x9c2 <do_rand+0x6c>
 9bc:	01 97       	sbiw	r24, 0x01	; 1
 9be:	a1 09       	sbc	r26, r1
 9c0:	b0 48       	sbci	r27, 0x80	; 128
 9c2:	88 83       	st	Y, r24
 9c4:	99 83       	std	Y+1, r25	; 0x01
 9c6:	aa 83       	std	Y+2, r26	; 0x02
 9c8:	bb 83       	std	Y+3, r27	; 0x03
 9ca:	9f 77       	andi	r25, 0x7F	; 127
 9cc:	df 91       	pop	r29
 9ce:	cf 91       	pop	r28
 9d0:	ff 90       	pop	r15
 9d2:	ef 90       	pop	r14
 9d4:	df 90       	pop	r13
 9d6:	cf 90       	pop	r12
 9d8:	bf 90       	pop	r11
 9da:	af 90       	pop	r10
 9dc:	9f 90       	pop	r9
 9de:	8f 90       	pop	r8
 9e0:	08 95       	ret

000009e2 <rand_r>:
 9e2:	b9 cf       	rjmp	.-142    	; 0x956 <do_rand>

000009e4 <rand>:
 9e4:	89 e4       	ldi	r24, 0x49	; 73
 9e6:	91 e0       	ldi	r25, 0x01	; 1
 9e8:	b6 cf       	rjmp	.-148    	; 0x956 <do_rand>

000009ea <srand>:
 9ea:	a0 e0       	ldi	r26, 0x00	; 0
 9ec:	b0 e0       	ldi	r27, 0x00	; 0
 9ee:	e9 e4       	ldi	r30, 0x49	; 73
 9f0:	f1 e0       	ldi	r31, 0x01	; 1
 9f2:	80 83       	st	Z, r24
 9f4:	91 83       	std	Z+1, r25	; 0x01
 9f6:	a2 83       	std	Z+2, r26	; 0x02
 9f8:	b3 83       	std	Z+3, r27	; 0x03
 9fa:	08 95       	ret

Disassembly of section .text.avrlibc:

000010f0 <eeprom_read_dword>:
    10f0:	cb 01       	movw	r24, r22
    10f2:	a6 e1       	ldi	r26, 0x16	; 22
    10f4:	b0 e0       	ldi	r27, 0x00	; 0
    10f6:	44 e0       	ldi	r20, 0x04	; 4
    10f8:	50 e0       	ldi	r21, 0x00	; 0
    10fa:	cd c0       	rjmp	.+410    	; 0x1296 <eeprom_read_blraw>

Disassembly of section .text.avrlibc:

000010e6 <eeprom_write_dword>:
    10e6:	24 2f       	mov	r18, r20
    10e8:	c2 d0       	rcall	.+388    	; 0x126e <eeprom_write_r18>
    10ea:	25 2f       	mov	r18, r21
    10ec:	c0 d0       	rcall	.+384    	; 0x126e <eeprom_write_r18>
    10ee:	cc c0       	rjmp	.+408    	; 0x1288 <eeprom_write_word>

Disassembly of section .text.avrlibc:

00001288 <eeprom_write_word>:
    1288:	f1 df       	rcall	.-30     	; 0x126c <eeprom_write_byte>
    128a:	27 2f       	mov	r18, r23
    128c:	f0 cf       	rjmp	.-32     	; 0x126e <eeprom_write_r18>

Disassembly of section .text.avrlibc:

0000128e <eeprom_read_block>:
    128e:	ba 01       	movw	r22, r20
    1290:	a9 01       	movw	r20, r18
    1292:	dc 01       	movw	r26, r24
    1294:	cb 01       	movw	r24, r22

00001296 <eeprom_read_blraw>:
    1296:	fc 01       	movw	r30, r24
    1298:	f9 99       	sbic	0x1f, 1	; 31
    129a:	fe cf       	rjmp	.-4      	; 0x1298 <eeprom_read_blraw+0x2>
    129c:	06 c0       	rjmp	.+12     	; 0x12aa <eeprom_read_blraw+0x14>
    129e:	f2 bd       	out	0x22, r31	; 34
    12a0:	e1 bd       	out	0x21, r30	; 33
    12a2:	f8 9a       	sbi	0x1f, 0	; 31
    12a4:	31 96       	adiw	r30, 0x01	; 1
    12a6:	00 b4       	in	r0, 0x20	; 32
    12a8:	0d 92       	st	X+, r0
    12aa:	41 50       	subi	r20, 0x01	; 1
    12ac:	50 40       	sbci	r21, 0x00	; 0
    12ae:	b8 f7       	brcc	.-18     	; 0x129e <eeprom_read_blraw+0x8>
    12b0:	08 95       	ret

Disassembly of section .text.avrlibc:

0000126c <eeprom_write_byte>:
    126c:	26 2f       	mov	r18, r22

0000126e <eeprom_write_r18>:
    126e:	f9 99       	sbic	0x1f, 1	; 31
    1270:	fe cf       	rjmp	.-4      	; 0x126e <eeprom_write_r18>
    1272:	1f ba       	out	0x1f, r1	; 31
    1274:	92 bd       	out	0x22, r25	; 34
    1276:	81 bd       	out	0x21, r24	; 33
    1278:	20 bd       	out	0x20, r18	; 32
    127a:	0f b6       	in	r0, 0x3f	; 63
    127c:	f8 94       	cli
    127e:	fa 9a       	sbi	0x1f, 2	; 31
    1280:	f9 9a       	sbi	0x1f, 1	; 31
    1282:	0f be       	out	0x3f, r0	; 63
    1284:	01 96       	adiw	r24, 0x01	; 1
    1286:	08 95       	ret

Disassembly of section .text.libgcc.div:

00000e14 <__divmodsi4>:
 e14:	05 2e       	mov	r0, r21
 e16:	97 fb       	bst	r25, 7
 e18:	16 f4       	brtc	.+4      	; 0xe1e <__divmodsi4+0xa>
 e1a:	00 94       	com	r0
 e1c:	7e d1       	rcall	.+764    	; 0x111a <__negsi2>
 e1e:	57 fd       	sbrc	r21, 7
 e20:	05 d0       	rcall	.+10     	; 0xe2c <__divmodsi4_neg2>
 e22:	fc dc       	rcall	.-1544   	; 0x81c <__udivmodsi4>
 e24:	07 fc       	sbrc	r0, 7
 e26:	02 d0       	rcall	.+4      	; 0xe2c <__divmodsi4_neg2>
 e28:	46 f4       	brtc	.+16     	; 0xe3a <__divmodsi4_exit>
 e2a:	77 c1       	rjmp	.+750    	; 0x111a <__negsi2>

00000e2c <__divmodsi4_neg2>:
 e2c:	50 95       	com	r21
 e2e:	40 95       	com	r20
 e30:	30 95       	com	r19
 e32:	21 95       	neg	r18
 e34:	3f 4f       	sbci	r19, 0xFF	; 255
 e36:	4f 4f       	sbci	r20, 0xFF	; 255
 e38:	5f 4f       	sbci	r21, 0xFF	; 255

00000e3a <__divmodsi4_exit>:
 e3a:	08 95       	ret

Disassembly of section .text.libgcc.div:

0000111a <__negsi2>:
    111a:	90 95       	com	r25
    111c:	80 95       	com	r24
    111e:	70 95       	com	r23
    1120:	61 95       	neg	r22
    1122:	7f 4f       	sbci	r23, 0xFF	; 255
    1124:	8f 4f       	sbci	r24, 0xFF	; 255
    1126:	9f 4f       	sbci	r25, 0xFF	; 255
    1128:	08 95       	ret

Disassembly of section .text.libgcc.mul:

00000df4 <__muluhisi3>:
 df4:	83 d1       	rcall	.+774    	; 0x10fc <__umulhisi3>
 df6:	a5 9f       	mul	r26, r21
 df8:	90 0d       	add	r25, r0
 dfa:	b4 9f       	mul	r27, r20
 dfc:	90 0d       	add	r25, r0
 dfe:	a4 9f       	mul	r26, r20
 e00:	80 0d       	add	r24, r0
 e02:	91 1d       	adc	r25, r1
 e04:	11 24       	eor	r1, r1
 e06:	08 95       	ret

Disassembly of section .text.libgcc.mul:

00000e08 <__mulshisi3>:
 e08:	b7 ff       	sbrs	r27, 7
 e0a:	f4 cf       	rjmp	.-24     	; 0xdf4 <__muluhisi3>

00000e0c <__mulohisi3>:
 e0c:	f3 df       	rcall	.-26     	; 0xdf4 <__muluhisi3>
 e0e:	82 1b       	sub	r24, r18
 e10:	93 0b       	sbc	r25, r19
 e12:	08 95       	ret
